
obj/net/ns:     file format elf32-i386


Disassembly of section .text:

00800020 <_start>:
// starts us running when we are initially loaded into a new environment.
.text
.globl _start
_start:
	// See if we were started with arguments on the stack
	cmpl $USTACKTOP, %esp
  800020:	81 fc 00 e0 bf ee    	cmp    $0xeebfe000,%esp
	jne args_exist
  800026:	75 04                	jne    80002c <args_exist>

	// If not, push dummy argc/argv arguments.
	// This happens when we are loaded by the kernel,
	// because the kernel does not know about passing arguments.
	pushl $0
  800028:	6a 00                	push   $0x0
	pushl $0
  80002a:	6a 00                	push   $0x0

0080002c <args_exist>:

args_exist:
	call libmain
  80002c:	e8 77 08 00 00       	call   8008a8 <libmain>
1:	jmp 1b
  800031:	eb fe                	jmp    800031 <args_exist+0x5>
	...

00800040 <put_buffer>:

	return va;
}

static void
put_buffer(void *va) {
  800040:	55                   	push   %ebp
  800041:	89 e5                	mov    %esp,%ebp
	int i = ((uint32_t)va - REQVA) / PGSIZE;
	buse[i] = 0;
  800043:	2d 00 b0 fe 0f       	sub    $0xffeb000,%eax
  800048:	c1 e8 0c             	shr    $0xc,%eax
  80004b:	c7 04 85 40 60 81 00 	movl   $0x0,0x816040(,%eax,4)
  800052:	00 00 00 00 
}
  800056:	5d                   	pop    %ebp
  800057:	c3                   	ret    

00800058 <umain>:
	serve();
}

void
umain(int argc, char **argv)
{
  800058:	55                   	push   %ebp
  800059:	89 e5                	mov    %esp,%ebp
  80005b:	53                   	push   %ebx
  80005c:	83 ec 14             	sub    $0x14,%esp
	envid_t ns_envid = sys_getenvid();
  80005f:	e8 b3 17 00 00       	call   801817 <sys_getenvid>
  800064:	89 c3                	mov    %eax,%ebx

	binaryname = "ns";
  800066:	c7 05 00 50 81 00 20 	movl   $0x811f20,0x815000
  80006d:	1f 81 00 

	// fork off the timer thread which will send us periodic messages
	timer_envid = fork();
  800070:	e8 ad 18 00 00       	call   801922 <fork>
  800075:	a3 24 60 81 00       	mov    %eax,0x816024
	if (timer_envid < 0)
  80007a:	85 c0                	test   %eax,%eax
  80007c:	79 1c                	jns    80009a <umain+0x42>
		panic("error forking");
  80007e:	c7 44 24 08 23 1f 81 	movl   $0x811f23,0x8(%esp)
  800085:	00 
  800086:	c7 44 24 04 43 01 00 	movl   $0x143,0x4(%esp)
  80008d:	00 
  80008e:	c7 04 24 31 1f 81 00 	movl   $0x811f31,(%esp)
  800095:	e8 7a 08 00 00       	call   800914 <_panic>
	else if (timer_envid == 0) {
  80009a:	85 c0                	test   %eax,%eax
  80009c:	75 15                	jne    8000b3 <umain+0x5b>
		timer(ns_envid, TIMER_INTERVAL);
  80009e:	c7 44 24 04 fa 00 00 	movl   $0xfa,0x4(%esp)
  8000a5:	00 
  8000a6:	89 1c 24             	mov    %ebx,(%esp)
  8000a9:	e8 d2 06 00 00       	call   800780 <timer>
		return;
  8000ae:	e9 a3 00 00 00       	jmp    800156 <umain+0xfe>
	}

	// fork off the input thread which will poll the NIC driver for input
	// packets
	input_envid = fork();
  8000b3:	e8 6a 18 00 00       	call   801922 <fork>
  8000b8:	a3 28 60 81 00       	mov    %eax,0x816028
	if (input_envid < 0)
  8000bd:	85 c0                	test   %eax,%eax
  8000bf:	79 1c                	jns    8000dd <umain+0x85>
		panic("error forking");
  8000c1:	c7 44 24 08 23 1f 81 	movl   $0x811f23,0x8(%esp)
  8000c8:	00 
  8000c9:	c7 44 24 04 4d 01 00 	movl   $0x14d,0x4(%esp)
  8000d0:	00 
  8000d1:	c7 04 24 31 1f 81 00 	movl   $0x811f31,(%esp)
  8000d8:	e8 37 08 00 00       	call   800914 <_panic>
	else if (input_envid == 0) {
  8000dd:	85 c0                	test   %eax,%eax
  8000df:	75 0a                	jne    8000eb <umain+0x93>
		input(ns_envid);
  8000e1:	89 1c 24             	mov    %ebx,(%esp)
  8000e4:	e8 5f 07 00 00       	call   800848 <input>
		return;
  8000e9:	eb 6b                	jmp    800156 <umain+0xfe>
	}

	// fork off the output thread that will send the packets to the NIC
	// driver
	output_envid = fork();
  8000eb:	90                   	nop
  8000ec:	8d 74 26 00          	lea    0x0(%esi,%eiz,1),%esi
  8000f0:	e8 2d 18 00 00       	call   801922 <fork>
  8000f5:	a3 2c 60 81 00       	mov    %eax,0x81602c
	if (output_envid < 0)
  8000fa:	85 c0                	test   %eax,%eax
  8000fc:	79 1c                	jns    80011a <umain+0xc2>
		panic("error forking");
  8000fe:	c7 44 24 08 23 1f 81 	movl   $0x811f23,0x8(%esp)
  800105:	00 
  800106:	c7 44 24 04 57 01 00 	movl   $0x157,0x4(%esp)
  80010d:	00 
  80010e:	c7 04 24 31 1f 81 00 	movl   $0x811f31,(%esp)
  800115:	e8 fa 07 00 00       	call   800914 <_panic>
	else if (output_envid == 0) {
  80011a:	85 c0                	test   %eax,%eax
  80011c:	75 0a                	jne    800128 <umain+0xd0>
		output(ns_envid);
  80011e:	89 1c 24             	mov    %ebx,(%esp)
  800121:	e8 32 07 00 00       	call   800858 <output>
		return;
  800126:	eb 2e                	jmp    800156 <umain+0xfe>
	}

	// lwIP requires a user threading library; start the library and jump
	// into a thread to continue initialization.
	thread_init();
  800128:	e8 13 d8 00 00       	call   80d940 <thread_init>
	thread_create(0, "main", tmain, 0);
  80012d:	c7 44 24 0c 00 00 00 	movl   $0x0,0xc(%esp)
  800134:	00 
  800135:	c7 44 24 08 14 07 80 	movl   $0x800714,0x8(%esp)
  80013c:	00 
  80013d:	c7 44 24 04 3c 1f 81 	movl   $0x811f3c,0x4(%esp)
  800144:	00 
  800145:	c7 04 24 00 00 00 00 	movl   $0x0,(%esp)
  80014c:	e8 d6 d9 00 00       	call   80db27 <thread_create>
	thread_yield();
  800151:	e8 8a d8 00 00       	call   80d9e0 <thread_yield>
	// never coming here!
}
  800156:	83 c4 14             	add    $0x14,%esp
  800159:	5b                   	pop    %ebx
  80015a:	5d                   	pop    %ebp
  80015b:	c3                   	ret    

0080015c <serve>:
	sys_page_unmap(0, (void*) args->req);
	free(args);
}

void
serve(void) {
  80015c:	55                   	push   %ebp
  80015d:	89 e5                	mov    %esp,%ebp
  80015f:	57                   	push   %edi
  800160:	56                   	push   %esi
  800161:	53                   	push   %ebx
  800162:	83 ec 3c             	sub    $0x3c,%esp
  800165:	bb 00 00 00 00       	mov    $0x0,%ebx
		for (i = 0; thread_wakeups_pending() && i < 32; ++i)
			thread_yield();

		perm = 0;
		va = get_buffer();
		reqno = ipc_recv((int32_t *) &whom, (void *) va, &perm);
  80016a:	8d 7d e0             	lea    -0x20(%ebp),%edi
  80016d:	eb 08                	jmp    800177 <serve+0x1b>
	while (1) {
		// ipc_recv will block the entire process, so we flush
		// all pending work from other threads.  We limit the
		// number of yields in case there's a rogue thread.
		for (i = 0; thread_wakeups_pending() && i < 32; ++i)
			thread_yield();
  80016f:	e8 6c d8 00 00       	call   80d9e0 <thread_yield>

	while (1) {
		// ipc_recv will block the entire process, so we flush
		// all pending work from other threads.  We limit the
		// number of yields in case there's a rogue thread.
		for (i = 0; thread_wakeups_pending() && i < 32; ++i)
  800174:	83 c3 01             	add    $0x1,%ebx
  800177:	e8 15 d8 00 00       	call   80d991 <thread_wakeups_pending>
  80017c:	85 c0                	test   %eax,%eax
  80017e:	74 05                	je     800185 <serve+0x29>
  800180:	83 fb 1f             	cmp    $0x1f,%ebx
  800183:	7e ea                	jle    80016f <serve+0x13>
			thread_yield();

		perm = 0;
  800185:	c7 45 e0 00 00 00 00 	movl   $0x0,-0x20(%ebp)
get_buffer(void) {
	void *va;

	int i;
	for (i = 0; i < QUEUE_SIZE; i++)
		if (!buse[i]) break;
  80018c:	83 3d 40 60 81 00 00 	cmpl   $0x0,0x816040
  800193:	74 3b                	je     8001d0 <serve+0x74>
  800195:	b8 01 00 00 00       	mov    $0x1,%eax
  80019a:	ba 40 60 81 00       	mov    $0x816040,%edx
  80019f:	83 3c 82 00          	cmpl   $0x0,(%edx,%eax,4)
  8001a3:	74 0a                	je     8001af <serve+0x53>
static void *
get_buffer(void) {
	void *va;

	int i;
	for (i = 0; i < QUEUE_SIZE; i++)
  8001a5:	83 c0 01             	add    $0x1,%eax
  8001a8:	83 f8 14             	cmp    $0x14,%eax
  8001ab:	75 f2                	jne    80019f <serve+0x43>
  8001ad:	eb 05                	jmp    8001b4 <serve+0x58>
		if (!buse[i]) break;

	if (i == QUEUE_SIZE) {
  8001af:	83 f8 14             	cmp    $0x14,%eax
  8001b2:	75 21                	jne    8001d5 <serve+0x79>
		panic("NS: buffer overflow");
  8001b4:	c7 44 24 08 41 1f 81 	movl   $0x811f41,0x8(%esp)
  8001bb:	00 
  8001bc:	c7 44 24 04 3f 00 00 	movl   $0x3f,0x4(%esp)
  8001c3:	00 
  8001c4:	c7 04 24 31 1f 81 00 	movl   $0x811f31,(%esp)
  8001cb:	e8 44 07 00 00       	call   800914 <_panic>
  8001d0:	b8 00 00 00 00       	mov    $0x0,%eax
		return 0;
	}

	va = (void *)(REQVA + i * PGSIZE);
  8001d5:	8d 98 eb ff 00 00    	lea    0xffeb(%eax),%ebx
  8001db:	c1 e3 0c             	shl    $0xc,%ebx
	buse[i] = 1;
  8001de:	c7 04 85 40 60 81 00 	movl   $0x1,0x816040(,%eax,4)
  8001e5:	01 00 00 00 
		for (i = 0; thread_wakeups_pending() && i < 32; ++i)
			thread_yield();

		perm = 0;
		va = get_buffer();
		reqno = ipc_recv((int32_t *) &whom, (void *) va, &perm);
  8001e9:	89 7c 24 08          	mov    %edi,0x8(%esp)
  8001ed:	89 5c 24 04          	mov    %ebx,0x4(%esp)
  8001f1:	8d 45 e4             	lea    -0x1c(%ebp),%eax
  8001f4:	89 04 24             	mov    %eax,(%esp)
  8001f7:	e8 08 1c 00 00       	call   801e04 <ipc_recv>
  8001fc:	89 c6                	mov    %eax,%esi
		if (debug) {
			cprintf("ns req %d from %08x\n", reqno, whom);
		}

		// first take care of requests that do not contain an argument page
		if (reqno == NSREQ_TIMER) {
  8001fe:	83 f8 0c             	cmp    $0xc,%eax
  800201:	75 67                	jne    80026a <serve+0x10e>
			process_timer(whom);
  800203:	8b 75 e4             	mov    -0x1c(%ebp),%esi

static void
process_timer(envid_t envid) {
	uint32_t start, now, to;

	if (envid != timer_envid) {
  800206:	3b 35 24 60 81 00    	cmp    0x816024,%esi
  80020c:	74 12                	je     800220 <serve+0xc4>
		cprintf("NS: received timer interrupt from envid %x not timer env\n", envid);
  80020e:	89 74 24 04          	mov    %esi,0x4(%esp)
  800212:	c7 04 24 d0 1f 81 00 	movl   $0x811fd0,(%esp)
  800219:	e8 af 07 00 00       	call   8009cd <cprintf>
  80021e:	eb 39                	jmp    800259 <serve+0xfd>
		return;
	}

	start = sys_time_msec();
  800220:	e8 85 13 00 00       	call   8015aa <sys_time_msec>
  800225:	89 45 d4             	mov    %eax,-0x2c(%ebp)
	thread_yield();
  800228:	e8 b3 d7 00 00       	call   80d9e0 <thread_yield>
	now = sys_time_msec();
  80022d:	e8 78 13 00 00       	call   8015aa <sys_time_msec>

	to = TIMER_INTERVAL - (now - start);
	ipc_send(envid, to, 0, 0);
  800232:	c7 44 24 0c 00 00 00 	movl   $0x0,0xc(%esp)
  800239:	00 
  80023a:	c7 44 24 08 00 00 00 	movl   $0x0,0x8(%esp)
  800241:	00 
  800242:	8b 55 d4             	mov    -0x2c(%ebp),%edx
  800245:	81 c2 fa 00 00 00    	add    $0xfa,%edx
  80024b:	29 c2                	sub    %eax,%edx
  80024d:	89 54 24 04          	mov    %edx,0x4(%esp)
  800251:	89 34 24             	mov    %esi,(%esp)
  800254:	e8 40 1b 00 00       	call   801d99 <ipc_send>
		}

		// first take care of requests that do not contain an argument page
		if (reqno == NSREQ_TIMER) {
			process_timer(whom);
			put_buffer(va);
  800259:	89 d8                	mov    %ebx,%eax
  80025b:	e8 e0 fd ff ff       	call   800040 <put_buffer>
  800260:	bb 00 00 00 00       	mov    $0x0,%ebx
			continue;
  800265:	e9 0d ff ff ff       	jmp    800177 <serve+0x1b>
		}

		// All remaining requests must contain an argument page
		if (!(perm & PTE_P)) {
  80026a:	f6 45 e0 01          	testb  $0x1,-0x20(%ebp)
  80026e:	66 90                	xchg   %ax,%ax
  800270:	75 1d                	jne    80028f <serve+0x133>
			cprintf("Invalid request from %08x: no argument page\n", whom);
  800272:	8b 45 e4             	mov    -0x1c(%ebp),%eax
  800275:	89 44 24 04          	mov    %eax,0x4(%esp)
  800279:	c7 04 24 0c 20 81 00 	movl   $0x81200c,(%esp)
  800280:	e8 48 07 00 00       	call   8009cd <cprintf>
  800285:	bb 00 00 00 00       	mov    $0x0,%ebx
			continue; // just leave it hanging...
  80028a:	e9 e8 fe ff ff       	jmp    800177 <serve+0x1b>
		}

		// Since some lwIP socket calls will block, create a thread and
		// process the rest of the request in the thread.
		struct st_args *args = malloc(sizeof(struct st_args));
  80028f:	c7 04 24 0c 00 00 00 	movl   $0xc,(%esp)
  800296:	e8 d8 2a 00 00       	call   802d73 <malloc>
		if (!args)
  80029b:	85 c0                	test   %eax,%eax
  80029d:	75 1c                	jne    8002bb <serve+0x15f>
			panic("could not allocate thread args structure");
  80029f:	c7 44 24 08 3c 20 81 	movl   $0x81203c,0x8(%esp)
  8002a6:	00 
  8002a7:	c7 44 24 04 26 01 00 	movl   $0x126,0x4(%esp)
  8002ae:	00 
  8002af:	c7 04 24 31 1f 81 00 	movl   $0x811f31,(%esp)
  8002b6:	e8 59 06 00 00       	call   800914 <_panic>

		args->reqno = reqno;
  8002bb:	89 30                	mov    %esi,(%eax)
		args->whom = whom;
  8002bd:	8b 55 e4             	mov    -0x1c(%ebp),%edx
  8002c0:	89 50 04             	mov    %edx,0x4(%eax)
		args->req = va;
  8002c3:	89 58 08             	mov    %ebx,0x8(%eax)

		thread_create(0, "serve_thread", serve_thread, (uint32_t)args);
  8002c6:	89 44 24 0c          	mov    %eax,0xc(%esp)
  8002ca:	c7 44 24 08 f5 02 80 	movl   $0x8002f5,0x8(%esp)
  8002d1:	00 
  8002d2:	c7 44 24 04 55 1f 81 	movl   $0x811f55,0x4(%esp)
  8002d9:	00 
  8002da:	c7 04 24 00 00 00 00 	movl   $0x0,(%esp)
  8002e1:	e8 41 d8 00 00       	call   80db27 <thread_create>
		thread_yield(); // let the thread created run
  8002e6:	e8 f5 d6 00 00       	call   80d9e0 <thread_yield>
  8002eb:	bb 00 00 00 00       	mov    $0x0,%ebx
  8002f0:	e9 82 fe ff ff       	jmp    800177 <serve+0x1b>

008002f5 <serve_thread>:
	uint32_t whom;
	union Nsipc *req;
};

static void
serve_thread(uint32_t a) {
  8002f5:	55                   	push   %ebp
  8002f6:	89 e5                	mov    %esp,%ebp
  8002f8:	81 ec 98 00 00 00    	sub    $0x98,%esp
  8002fe:	89 5d f4             	mov    %ebx,-0xc(%ebp)
  800301:	89 75 f8             	mov    %esi,-0x8(%ebp)
  800304:	89 7d fc             	mov    %edi,-0x4(%ebp)
	struct st_args *args = (struct st_args *)a;
  800307:	8b 5d 08             	mov    0x8(%ebp),%ebx
	union Nsipc *req = args->req;
  80030a:	8b 73 08             	mov    0x8(%ebx),%esi
	int r;

	switch (args->reqno) {
  80030d:	83 3b 0a             	cmpl   $0xa,(%ebx)
  800310:	0f 87 34 01 00 00    	ja     80044a <serve_thread+0x155>
  800316:	8b 03                	mov    (%ebx),%eax
  800318:	ff 24 85 08 21 81 00 	jmp    *0x812108(,%eax,4)
	case NSREQ_ACCEPT:
	{
		struct Nsret_accept ret;
		r = lwip_accept(req->accept.req_s, &ret.ret_addr,
  80031f:	8d 45 94             	lea    -0x6c(%ebp),%eax
  800322:	89 44 24 08          	mov    %eax,0x8(%esp)
  800326:	8d 45 84             	lea    -0x7c(%ebp),%eax
  800329:	89 44 24 04          	mov    %eax,0x4(%esp)
  80032d:	8b 06                	mov    (%esi),%eax
  80032f:	89 04 24             	mov    %eax,(%esp)
  800332:	e8 b0 44 00 00       	call   8047e7 <lwip_accept>
  800337:	89 c7                	mov    %eax,%edi
				&ret.ret_addrlen);
		memmove(req, &ret, sizeof ret);
  800339:	c7 44 24 08 14 00 00 	movl   $0x14,0x8(%esp)
  800340:	00 
  800341:	8d 45 84             	lea    -0x7c(%ebp),%eax
  800344:	89 44 24 04          	mov    %eax,0x4(%esp)
  800348:	89 34 24             	mov    %esi,(%esp)
  80034b:	e8 a5 0f 00 00       	call   8012f5 <memmove>
		break;
  800350:	e9 13 01 00 00       	jmp    800468 <serve_thread+0x173>
	}
	case NSREQ_BIND:
		r = lwip_bind(req->bind.req_s, &req->bind.req_name,
  800355:	8b 46 14             	mov    0x14(%esi),%eax
  800358:	89 44 24 08          	mov    %eax,0x8(%esp)
  80035c:	8d 46 04             	lea    0x4(%esi),%eax
  80035f:	89 44 24 04          	mov    %eax,0x4(%esp)
  800363:	8b 06                	mov    (%esi),%eax
  800365:	89 04 24             	mov    %eax,(%esp)
  800368:	e8 c1 43 00 00       	call   80472e <lwip_bind>
  80036d:	89 c7                	mov    %eax,%edi
			      req->bind.req_namelen);
		break;
  80036f:	e9 f4 00 00 00       	jmp    800468 <serve_thread+0x173>
	case NSREQ_SHUTDOWN:
		r = lwip_shutdown(req->shutdown.req_s, req->shutdown.req_how);
  800374:	8b 46 04             	mov    0x4(%esi),%eax
  800377:	89 44 24 04          	mov    %eax,0x4(%esp)
  80037b:	8b 06                	mov    (%esi),%eax
  80037d:	89 04 24             	mov    %eax,(%esp)
  800380:	e8 4f 42 00 00       	call   8045d4 <lwip_shutdown>
  800385:	89 c7                	mov    %eax,%edi
		break;
  800387:	e9 dc 00 00 00       	jmp    800468 <serve_thread+0x173>
	case NSREQ_CLOSE:
		r = lwip_close(req->close.req_s);
  80038c:	8b 06                	mov    (%esi),%eax
  80038e:	89 04 24             	mov    %eax,(%esp)
  800391:	e8 c2 41 00 00       	call   804558 <lwip_close>
  800396:	89 c7                	mov    %eax,%edi
		break;
  800398:	e9 cb 00 00 00       	jmp    800468 <serve_thread+0x173>
	case NSREQ_CONNECT:
		r = lwip_connect(req->connect.req_s, &req->connect.req_name,
  80039d:	8b 46 14             	mov    0x14(%esi),%eax
  8003a0:	89 44 24 08          	mov    %eax,0x8(%esp)
  8003a4:	8d 46 04             	lea    0x4(%esi),%eax
  8003a7:	89 44 24 04          	mov    %eax,0x4(%esp)
  8003ab:	8b 06                	mov    (%esi),%eax
  8003ad:	89 04 24             	mov    %eax,(%esp)
  8003b0:	e8 c0 42 00 00       	call   804675 <lwip_connect>
  8003b5:	89 c7                	mov    %eax,%edi
				 req->connect.req_namelen);
		break;
  8003b7:	e9 ac 00 00 00       	jmp    800468 <serve_thread+0x173>
	case NSREQ_LISTEN:
		r = lwip_listen(req->listen.req_s, req->listen.req_backlog);
  8003bc:	8b 46 04             	mov    0x4(%esi),%eax
  8003bf:	89 44 24 04          	mov    %eax,0x4(%esp)
  8003c3:	8b 06                	mov    (%esi),%eax
  8003c5:	89 04 24             	mov    %eax,(%esp)
  8003c8:	e8 1a 42 00 00       	call   8045e7 <lwip_listen>
  8003cd:	89 c7                	mov    %eax,%edi
		break;
  8003cf:	e9 94 00 00 00       	jmp    800468 <serve_thread+0x173>
	case NSREQ_RECV:
		// Note that we read the request fields before we
		// overwrite it with the response data.
		r = lwip_recv(req->recv.req_s, req->recvRet.ret_buf,
  8003d4:	8b 46 08             	mov    0x8(%esi),%eax
  8003d7:	89 44 24 0c          	mov    %eax,0xc(%esp)
  8003db:	8b 46 04             	mov    0x4(%esi),%eax
  8003de:	89 44 24 08          	mov    %eax,0x8(%esp)
  8003e2:	89 74 24 04          	mov    %esi,0x4(%esp)
  8003e6:	8b 06                	mov    (%esi),%eax
  8003e8:	89 04 24             	mov    %eax,(%esp)
  8003eb:	e8 f7 40 00 00       	call   8044e7 <lwip_recv>
  8003f0:	89 c7                	mov    %eax,%edi
			      req->recv.req_len, req->recv.req_flags);
		break;
  8003f2:	eb 74                	jmp    800468 <serve_thread+0x173>
	case NSREQ_SEND:
		r = lwip_send(req->send.req_s, &req->send.req_buf,
  8003f4:	8b 46 08             	mov    0x8(%esi),%eax
  8003f7:	89 44 24 0c          	mov    %eax,0xc(%esp)
  8003fb:	8b 46 04             	mov    0x4(%esi),%eax
  8003fe:	89 44 24 08          	mov    %eax,0x8(%esp)
  800402:	8d 46 0c             	lea    0xc(%esi),%eax
  800405:	89 44 24 04          	mov    %eax,0x4(%esp)
  800409:	8b 06                	mov    (%esi),%eax
  80040b:	89 04 24             	mov    %eax,(%esp)
  80040e:	e8 57 3c 00 00       	call   80406a <lwip_send>
  800413:	89 c7                	mov    %eax,%edi
			      req->send.req_size, req->send.req_flags);
		break;
  800415:	eb 51                	jmp    800468 <serve_thread+0x173>
	case NSREQ_SOCKET:
		r = lwip_socket(req->socket.req_domain, req->socket.req_type,
  800417:	8b 46 08             	mov    0x8(%esi),%eax
  80041a:	89 44 24 08          	mov    %eax,0x8(%esp)
  80041e:	8b 46 04             	mov    0x4(%esi),%eax
  800421:	89 44 24 04          	mov    %eax,0x4(%esp)
  800425:	8b 06                	mov    (%esi),%eax
  800427:	89 04 24             	mov    %eax,(%esp)
  80042a:	e8 50 3b 00 00       	call   803f7f <lwip_socket>
  80042f:	89 c7                	mov    %eax,%edi
				req->socket.req_protocol);
		break;
  800431:	eb 35                	jmp    800468 <serve_thread+0x173>
	case NSREQ_INPUT:
		jif_input(&nif, (void *)&req->pkt);
  800433:	89 74 24 04          	mov    %esi,0x4(%esp)
  800437:	c7 04 24 40 c2 b3 00 	movl   $0xb3c240,(%esp)
  80043e:	e8 27 db 00 00       	call   80df6a <jif_input>
  800443:	bf 00 00 00 00       	mov    $0x0,%edi
		r = 0;
		break;
  800448:	eb 4c                	jmp    800496 <serve_thread+0x1a1>
	default:
		cprintf("Invalid request code %d from %08x\n", args->whom, args->req);
  80044a:	89 74 24 08          	mov    %esi,0x8(%esp)
  80044e:	8b 43 04             	mov    0x4(%ebx),%eax
  800451:	89 44 24 04          	mov    %eax,0x4(%esp)
  800455:	c7 04 24 68 20 81 00 	movl   $0x812068,(%esp)
  80045c:	e8 6c 05 00 00       	call   8009cd <cprintf>
  800461:	bf fd ff ff ff       	mov    $0xfffffffd,%edi
  800466:	eb 2e                	jmp    800496 <serve_thread+0x1a1>
		r = -E_INVAL;
		break;
	}

	if (r == -1) {
  800468:	83 ff ff             	cmp    $0xffffffff,%edi
  80046b:	75 29                	jne    800496 <serve_thread+0x1a1>
		char buf[100];
		snprintf(buf, sizeof buf, "ns req type %d", args->reqno);
  80046d:	8b 03                	mov    (%ebx),%eax
  80046f:	89 44 24 0c          	mov    %eax,0xc(%esp)
  800473:	c7 44 24 08 62 1f 81 	movl   $0x811f62,0x8(%esp)
  80047a:	00 
  80047b:	c7 44 24 04 64 00 00 	movl   $0x64,0x4(%esp)
  800482:	00 
  800483:	8d 75 84             	lea    -0x7c(%ebp),%esi
  800486:	89 34 24             	mov    %esi,(%esp)
  800489:	e8 da 0b 00 00       	call   801068 <snprintf>
		perror(buf);
  80048e:	89 34 24             	mov    %esi,(%esp)
  800491:	e8 a1 d8 00 00       	call   80dd37 <perror>
	}

	if (args->reqno != NSREQ_INPUT)
  800496:	83 3b 0a             	cmpl   $0xa,(%ebx)
  800499:	74 1f                	je     8004ba <serve_thread+0x1c5>
		ipc_send(args->whom, r, 0, 0);
  80049b:	c7 44 24 0c 00 00 00 	movl   $0x0,0xc(%esp)
  8004a2:	00 
  8004a3:	c7 44 24 08 00 00 00 	movl   $0x0,0x8(%esp)
  8004aa:	00 
  8004ab:	89 7c 24 04          	mov    %edi,0x4(%esp)
  8004af:	8b 43 04             	mov    0x4(%ebx),%eax
  8004b2:	89 04 24             	mov    %eax,(%esp)
  8004b5:	e8 df 18 00 00       	call   801d99 <ipc_send>

	put_buffer(args->req);
  8004ba:	8b 43 08             	mov    0x8(%ebx),%eax
  8004bd:	e8 7e fb ff ff       	call   800040 <put_buffer>
	sys_page_unmap(0, (void*) args->req);
  8004c2:	8b 43 08             	mov    0x8(%ebx),%eax
  8004c5:	89 44 24 04          	mov    %eax,0x4(%esp)
  8004c9:	c7 04 24 00 00 00 00 	movl   $0x0,(%esp)
  8004d0:	e8 27 12 00 00       	call   8016fc <sys_page_unmap>
	free(args);
  8004d5:	89 1c 24             	mov    %ebx,(%esp)
  8004d8:	e8 c3 27 00 00       	call   802ca0 <free>
}
  8004dd:	8b 5d f4             	mov    -0xc(%ebp),%ebx
  8004e0:	8b 75 f8             	mov    -0x8(%ebp),%esi
  8004e3:	8b 7d fc             	mov    -0x4(%ebp),%edi
  8004e6:	89 ec                	mov    %ebp,%esp
  8004e8:	5d                   	pop    %ebp
  8004e9:	c3                   	ret    

008004ea <net_timer>:
	netif_set_up(nif);
}

static void __attribute__((noreturn))
net_timer(uint32_t arg)
{
  8004ea:	55                   	push   %ebp
  8004eb:	89 e5                	mov    %esp,%ebp
  8004ed:	56                   	push   %esi
  8004ee:	53                   	push   %ebx
  8004ef:	83 ec 10             	sub    $0x10,%esp
	struct timer_thread *t = (struct timer_thread *) arg;
  8004f2:	8b 5d 08             	mov    0x8(%ebp),%ebx

	for (;;) {
		uint32_t cur = sys_time_msec();
  8004f5:	e8 b0 10 00 00       	call   8015aa <sys_time_msec>
  8004fa:	89 c6                	mov    %eax,%esi

		lwip_core_lock();
  8004fc:	e8 08 cb 00 00       	call   80d009 <lwip_core_lock>
		t->func();
  800501:	ff 53 04             	call   *0x4(%ebx)
		lwip_core_unlock();
  800504:	e8 05 cb 00 00       	call   80d00e <lwip_core_unlock>

		thread_wait(0, 0, cur + t->msec);
  800509:	03 33                	add    (%ebx),%esi
  80050b:	89 74 24 08          	mov    %esi,0x8(%esp)
  80050f:	c7 44 24 04 00 00 00 	movl   $0x0,0x4(%esp)
  800516:	00 
  800517:	c7 04 24 00 00 00 00 	movl   $0x0,(%esp)
  80051e:	e8 4c d7 00 00       	call   80dc6f <thread_wait>
  800523:	eb d0                	jmp    8004f5 <net_timer+0xb>

00800525 <start_timer>:
	}
}

static void
start_timer(struct timer_thread *t, void (*func)(void), const char *name, int msec)
{
  800525:	55                   	push   %ebp
  800526:	89 e5                	mov    %esp,%ebp
  800528:	53                   	push   %ebx
  800529:	83 ec 14             	sub    $0x14,%esp
	t->msec = msec;
  80052c:	8b 5d 08             	mov    0x8(%ebp),%ebx
  80052f:	89 18                	mov    %ebx,(%eax)
	t->func = func;
  800531:	89 50 04             	mov    %edx,0x4(%eax)
	t->name = name;
  800534:	89 48 08             	mov    %ecx,0x8(%eax)
	int r = thread_create(0, name, &net_timer, (uint32_t)t);
  800537:	89 44 24 0c          	mov    %eax,0xc(%esp)
  80053b:	c7 44 24 08 ea 04 80 	movl   $0x8004ea,0x8(%esp)
  800542:	00 
  800543:	89 4c 24 04          	mov    %ecx,0x4(%esp)
  800547:	c7 04 24 00 00 00 00 	movl   $0x0,(%esp)
  80054e:	e8 d4 d5 00 00       	call   80db27 <thread_create>
	if (r < 0)
  800553:	85 c0                	test   %eax,%eax
  800555:	79 28                	jns    80057f <start_timer+0x5a>
		panic("cannot create timer thread: %s", e2s(r));
  800557:	89 04 24             	mov    %eax,(%esp)
  80055a:	e8 c9 d7 00 00       	call   80dd28 <e2s>
  80055f:	89 44 24 0c          	mov    %eax,0xc(%esp)
  800563:	c7 44 24 08 8c 20 81 	movl   $0x81208c,0x8(%esp)
  80056a:	00 
  80056b:	c7 44 24 04 7a 00 00 	movl   $0x7a,0x4(%esp)
  800572:	00 
  800573:	c7 04 24 31 1f 81 00 	movl   $0x811f31,(%esp)
  80057a:	e8 95 03 00 00       	call   800914 <_panic>
}
  80057f:	83 c4 14             	add    $0x14,%esp
  800582:	5b                   	pop    %ebx
  800583:	5d                   	pop    %ebp
  800584:	c3                   	ret    

00800585 <serve_init>:
	thread_wakeup(done);
}

void
serve_init(uint32_t ipaddr, uint32_t netmask, uint32_t gw)
{
  800585:	55                   	push   %ebp
  800586:	89 e5                	mov    %esp,%ebp
  800588:	56                   	push   %esi
  800589:	53                   	push   %ebx
  80058a:	83 ec 30             	sub    $0x30,%esp
  80058d:	8b 75 08             	mov    0x8(%ebp),%esi
	int r;
	lwip_core_lock();
  800590:	e8 74 ca 00 00       	call   80d009 <lwip_core_lock>

	uint32_t done = 0;
  800595:	c7 45 f4 00 00 00 00 	movl   $0x0,-0xc(%ebp)
	tcpip_init(&tcpip_init_done, &done);
  80059c:	8d 5d f4             	lea    -0xc(%ebp),%ebx
  80059f:	89 5c 24 04          	mov    %ebx,0x4(%esp)
  8005a3:	c7 04 24 67 07 80 00 	movl   $0x800767,(%esp)
  8005aa:	e8 24 44 00 00       	call   8049d3 <tcpip_init>
	lwip_core_unlock();
  8005af:	e8 5a ca 00 00       	call   80d00e <lwip_core_unlock>
	thread_wait(&done, 0, (uint32_t)~0);
  8005b4:	c7 44 24 08 ff ff ff 	movl   $0xffffffff,0x8(%esp)
  8005bb:	ff 
  8005bc:	c7 44 24 04 00 00 00 	movl   $0x0,0x4(%esp)
  8005c3:	00 
  8005c4:	89 1c 24             	mov    %ebx,(%esp)
  8005c7:	e8 a3 d6 00 00       	call   80dc6f <thread_wait>
	lwip_core_lock();
  8005cc:	e8 38 ca 00 00       	call   80d009 <lwip_core_lock>
static void
lwip_init(struct netif *nif, void *if_state,
	  uint32_t init_addr, uint32_t init_mask, uint32_t init_gw)
{
	struct ip_addr ipaddr, netmask, gateway;
	ipaddr.addr  = init_addr;
  8005d1:	89 75 f0             	mov    %esi,-0x10(%ebp)
	netmask.addr = init_mask;
  8005d4:	8b 45 0c             	mov    0xc(%ebp),%eax
  8005d7:	89 45 ec             	mov    %eax,-0x14(%ebp)
	gateway.addr = init_gw;
  8005da:	8b 45 10             	mov    0x10(%ebp),%eax
  8005dd:	89 45 e8             	mov    %eax,-0x18(%ebp)

	if (0 == netif_add(nif, &ipaddr, &netmask, &gateway,
  8005e0:	c7 44 24 18 44 96 80 	movl   $0x809644,0x18(%esp)
  8005e7:	00 
  8005e8:	c7 44 24 14 70 dd 80 	movl   $0x80dd70,0x14(%esp)
  8005ef:	00 
  8005f0:	c7 44 24 10 2c 60 81 	movl   $0x81602c,0x10(%esp)
  8005f7:	00 
  8005f8:	8d 45 e8             	lea    -0x18(%ebp),%eax
  8005fb:	89 44 24 0c          	mov    %eax,0xc(%esp)
  8005ff:	8d 45 ec             	lea    -0x14(%ebp),%eax
  800602:	89 44 24 08          	mov    %eax,0x8(%esp)
  800606:	8d 45 f0             	lea    -0x10(%ebp),%eax
  800609:	89 44 24 04          	mov    %eax,0x4(%esp)
  80060d:	c7 04 24 40 c2 b3 00 	movl   $0xb3c240,(%esp)
  800614:	e8 88 6e 00 00       	call   8074a1 <netif_add>
  800619:	85 c0                	test   %eax,%eax
  80061b:	75 1c                	jne    800639 <serve_init+0xb4>
			   if_state,
			   jif_init,
			   ip_input))
		panic("lwip_init: error in netif_add\n");
  80061d:	c7 44 24 08 ac 20 81 	movl   $0x8120ac,0x8(%esp)
  800624:	00 
  800625:	c7 44 24 04 5c 00 00 	movl   $0x5c,0x4(%esp)
  80062c:	00 
  80062d:	c7 04 24 31 1f 81 00 	movl   $0x811f31,(%esp)
  800634:	e8 db 02 00 00       	call   800914 <_panic>

	netif_set_default(nif);
  800639:	c7 04 24 40 c2 b3 00 	movl   $0xb3c240,(%esp)
  800640:	e8 dc 6c 00 00       	call   807321 <netif_set_default>
	netif_set_up(nif);
  800645:	c7 04 24 40 c2 b3 00 	movl   $0xb3c240,(%esp)
  80064c:	e8 5d 6d 00 00       	call   8073ae <netif_set_up>
	thread_wait(&done, 0, (uint32_t)~0);
	lwip_core_lock();

	lwip_init(&nif, &output_envid, ipaddr, netmask, gw);

	start_timer(&t_arp, &etharp_tmr, "arp timer", ARP_TMR_INTERVAL);
  800651:	c7 04 24 88 13 00 00 	movl   $0x1388,(%esp)
  800658:	b9 71 1f 81 00       	mov    $0x811f71,%ecx
  80065d:	ba a9 ca 80 00       	mov    $0x80caa9,%edx
  800662:	b8 00 60 81 00       	mov    $0x816000,%eax
  800667:	e8 b9 fe ff ff       	call   800525 <start_timer>
	start_timer(&t_tcpf, &tcp_fasttmr, "tcp f timer", TCP_FAST_INTERVAL);
  80066c:	c7 04 24 fa 00 00 00 	movl   $0xfa,(%esp)
  800673:	b9 7b 1f 81 00       	mov    $0x811f7b,%ecx
  800678:	ba 3c 84 80 00       	mov    $0x80843c,%edx
  80067d:	b8 0c 60 81 00       	mov    $0x81600c,%eax
  800682:	e8 9e fe ff ff       	call   800525 <start_timer>
	start_timer(&t_tcps, &tcp_slowtmr, "tcp s timer", TCP_SLOW_INTERVAL);
  800687:	c7 04 24 f4 01 00 00 	movl   $0x1f4,(%esp)
  80068e:	b9 87 1f 81 00       	mov    $0x811f87,%ecx
  800693:	ba 6e 8d 80 00       	mov    $0x808d6e,%edx
  800698:	b8 18 60 81 00       	mov    $0x816018,%eax
  80069d:	e8 83 fe ff ff       	call   800525 <start_timer>

	struct in_addr ia = {ipaddr};
	cprintf("ns: %02x:%02x:%02x:%02x:%02x:%02x"
  8006a2:	89 34 24             	mov    %esi,(%esp)
  8006a5:	e8 06 a0 00 00       	call   80a6b0 <inet_ntoa>
  8006aa:	89 44 24 1c          	mov    %eax,0x1c(%esp)
  8006ae:	0f b6 05 6a c2 b3 00 	movzbl 0xb3c26a,%eax
  8006b5:	89 44 24 18          	mov    %eax,0x18(%esp)
  8006b9:	0f b6 05 69 c2 b3 00 	movzbl 0xb3c269,%eax
  8006c0:	89 44 24 14          	mov    %eax,0x14(%esp)
  8006c4:	0f b6 05 68 c2 b3 00 	movzbl 0xb3c268,%eax
  8006cb:	89 44 24 10          	mov    %eax,0x10(%esp)
  8006cf:	0f b6 05 67 c2 b3 00 	movzbl 0xb3c267,%eax
  8006d6:	89 44 24 0c          	mov    %eax,0xc(%esp)
  8006da:	0f b6 05 66 c2 b3 00 	movzbl 0xb3c266,%eax
  8006e1:	89 44 24 08          	mov    %eax,0x8(%esp)
  8006e5:	0f b6 05 65 c2 b3 00 	movzbl 0xb3c265,%eax
  8006ec:	89 44 24 04          	mov    %eax,0x4(%esp)
  8006f0:	c7 04 24 cc 20 81 00 	movl   $0x8120cc,(%esp)
  8006f7:	e8 d1 02 00 00       	call   8009cd <cprintf>
		" bound to static IP %s\n",
		nif.hwaddr[0], nif.hwaddr[1], nif.hwaddr[2],
		nif.hwaddr[3], nif.hwaddr[4], nif.hwaddr[5],
		inet_ntoa(ia));

	lwip_core_unlock();
  8006fc:	e8 0d c9 00 00       	call   80d00e <lwip_core_unlock>

	cprintf("NS: TCP/IP initialized.\n");
  800701:	c7 04 24 93 1f 81 00 	movl   $0x811f93,(%esp)
  800708:	e8 c0 02 00 00       	call   8009cd <cprintf>
}
  80070d:	83 c4 30             	add    $0x30,%esp
  800710:	5b                   	pop    %ebx
  800711:	5e                   	pop    %esi
  800712:	5d                   	pop    %ebp
  800713:	c3                   	ret    

00800714 <tmain>:
		thread_yield(); // let the thread created run
	}
}

static void
tmain(uint32_t arg) {
  800714:	55                   	push   %ebp
  800715:	89 e5                	mov    %esp,%ebp
  800717:	83 ec 18             	sub    $0x18,%esp
  80071a:	89 5d f8             	mov    %ebx,-0x8(%ebp)
  80071d:	89 75 fc             	mov    %esi,-0x4(%ebp)
	serve_init(inet_addr(IP),
  800720:	c7 04 24 ac 1f 81 00 	movl   $0x811fac,(%esp)
  800727:	e8 74 a2 00 00       	call   80a9a0 <inet_addr>
  80072c:	89 c3                	mov    %eax,%ebx
  80072e:	c7 04 24 b5 1f 81 00 	movl   $0x811fb5,(%esp)
  800735:	e8 66 a2 00 00       	call   80a9a0 <inet_addr>
  80073a:	89 c6                	mov    %eax,%esi
  80073c:	c7 04 24 c3 1f 81 00 	movl   $0x811fc3,(%esp)
  800743:	e8 58 a2 00 00       	call   80a9a0 <inet_addr>
  800748:	89 5c 24 08          	mov    %ebx,0x8(%esp)
  80074c:	89 74 24 04          	mov    %esi,0x4(%esp)
  800750:	89 04 24             	mov    %eax,(%esp)
  800753:	e8 2d fe ff ff       	call   800585 <serve_init>
		   inet_addr(MASK),
		   inet_addr(DEFAULT));
	serve();
  800758:	e8 ff f9 ff ff       	call   80015c <serve>
}
  80075d:	8b 5d f8             	mov    -0x8(%ebp),%ebx
  800760:	8b 75 fc             	mov    -0x4(%ebp),%esi
  800763:	89 ec                	mov    %ebp,%esp
  800765:	5d                   	pop    %ebp
  800766:	c3                   	ret    

00800767 <tcpip_init_done>:
		panic("cannot create timer thread: %s", e2s(r));
}

static void
tcpip_init_done(void *arg)
{
  800767:	55                   	push   %ebp
  800768:	89 e5                	mov    %esp,%ebp
  80076a:	83 ec 18             	sub    $0x18,%esp
  80076d:	8b 45 08             	mov    0x8(%ebp),%eax
	uint32_t *done = arg;
	*done = 1;
  800770:	c7 00 01 00 00 00    	movl   $0x1,(%eax)
	thread_wakeup(done);
  800776:	89 04 24             	mov    %eax,(%esp)
  800779:	e8 f1 d1 00 00       	call   80d96f <thread_wakeup>
}
  80077e:	c9                   	leave  
  80077f:	c3                   	ret    

00800780 <timer>:
#include "ns.h"

void
timer(envid_t ns_envid, uint32_t initial_to) {
  800780:	55                   	push   %ebp
  800781:	89 e5                	mov    %esp,%ebp
  800783:	57                   	push   %edi
  800784:	56                   	push   %esi
  800785:	53                   	push   %ebx
  800786:	83 ec 2c             	sub    $0x2c,%esp
  800789:	8b 75 08             	mov    0x8(%ebp),%esi
	int r;
	uint32_t stop = sys_time_msec() + initial_to;
  80078c:	e8 19 0e 00 00       	call   8015aa <sys_time_msec>
  800791:	89 c3                	mov    %eax,%ebx
  800793:	03 5d 0c             	add    0xc(%ebp),%ebx

	binaryname = "ns_timer";
  800796:	c7 05 00 50 81 00 34 	movl   $0x812134,0x815000
  80079d:	21 81 00 

		ipc_send(ns_envid, NSREQ_TIMER, 0, 0);

		while (1) {
			uint32_t to, whom;
			to = ipc_recv((int32_t *) &whom, 0, 0);
  8007a0:	8d 7d e4             	lea    -0x1c(%ebp),%edi
  8007a3:	eb 05                	jmp    8007aa <timer+0x2a>

	binaryname = "ns_timer";

	while (1) {
		while((r = sys_time_msec()) < stop && r >= 0) {
			sys_yield();
  8007a5:	e8 fa 0f 00 00       	call   8017a4 <sys_yield>
	uint32_t stop = sys_time_msec() + initial_to;

	binaryname = "ns_timer";

	while (1) {
		while((r = sys_time_msec()) < stop && r >= 0) {
  8007aa:	e8 fb 0d 00 00       	call   8015aa <sys_time_msec>
  8007af:	39 c3                	cmp    %eax,%ebx
  8007b1:	76 07                	jbe    8007ba <timer+0x3a>
  8007b3:	85 c0                	test   %eax,%eax
  8007b5:	79 ee                	jns    8007a5 <timer+0x25>
  8007b7:	90                   	nop
  8007b8:	eb 08                	jmp    8007c2 <timer+0x42>
			sys_yield();
		}
		if (r < 0)
  8007ba:	85 c0                	test   %eax,%eax
  8007bc:	8d 74 26 00          	lea    0x0(%esi,%eiz,1),%esi
  8007c0:	79 20                	jns    8007e2 <timer+0x62>
			panic("sys_time_msec: %e", r);
  8007c2:	89 44 24 0c          	mov    %eax,0xc(%esp)
  8007c6:	c7 44 24 08 3d 21 81 	movl   $0x81213d,0x8(%esp)
  8007cd:	00 
  8007ce:	c7 44 24 04 0f 00 00 	movl   $0xf,0x4(%esp)
  8007d5:	00 
  8007d6:	c7 04 24 4f 21 81 00 	movl   $0x81214f,(%esp)
  8007dd:	e8 32 01 00 00       	call   800914 <_panic>

		ipc_send(ns_envid, NSREQ_TIMER, 0, 0);
  8007e2:	c7 44 24 0c 00 00 00 	movl   $0x0,0xc(%esp)
  8007e9:	00 
  8007ea:	c7 44 24 08 00 00 00 	movl   $0x0,0x8(%esp)
  8007f1:	00 
  8007f2:	c7 44 24 04 0c 00 00 	movl   $0xc,0x4(%esp)
  8007f9:	00 
  8007fa:	89 34 24             	mov    %esi,(%esp)
  8007fd:	e8 97 15 00 00       	call   801d99 <ipc_send>

		while (1) {
			uint32_t to, whom;
			to = ipc_recv((int32_t *) &whom, 0, 0);
  800802:	c7 44 24 08 00 00 00 	movl   $0x0,0x8(%esp)
  800809:	00 
  80080a:	c7 44 24 04 00 00 00 	movl   $0x0,0x4(%esp)
  800811:	00 
  800812:	89 3c 24             	mov    %edi,(%esp)
  800815:	e8 ea 15 00 00       	call   801e04 <ipc_recv>
  80081a:	89 c3                	mov    %eax,%ebx

			if (whom != ns_envid) {
  80081c:	8b 45 e4             	mov    -0x1c(%ebp),%eax
  80081f:	39 c6                	cmp    %eax,%esi
  800821:	74 12                	je     800835 <timer+0xb5>
				cprintf("NS TIMER: timer thread got IPC message from env %x not NS\n", whom);
  800823:	89 44 24 04          	mov    %eax,0x4(%esp)
  800827:	c7 04 24 5c 21 81 00 	movl   $0x81215c,(%esp)
  80082e:	e8 9a 01 00 00       	call   8009cd <cprintf>
				continue;
			}

			stop = sys_time_msec() + to;
			break;
		}
  800833:	eb cd                	jmp    800802 <timer+0x82>
			if (whom != ns_envid) {
				cprintf("NS TIMER: timer thread got IPC message from env %x not NS\n", whom);
				continue;
			}

			stop = sys_time_msec() + to;
  800835:	e8 70 0d 00 00       	call   8015aa <sys_time_msec>
  80083a:	01 c3                	add    %eax,%ebx
  80083c:	8d 74 26 00          	lea    0x0(%esi,%eiz,1),%esi
  800840:	e9 65 ff ff ff       	jmp    8007aa <timer+0x2a>
  800845:	00 00                	add    %al,(%eax)
	...

00800848 <input>:

extern union Nsipc nsipcbuf;

void
input(envid_t ns_envid)
{
  800848:	55                   	push   %ebp
  800849:	89 e5                	mov    %esp,%ebp
	binaryname = "ns_input";
  80084b:	c7 05 00 50 81 00 97 	movl   $0x812197,0x815000
  800852:	21 81 00 
	// 	- read a packet from the device driver
	//	- send it to the network server
	// Hint: When you IPC a page to the network server, it will be
	// reading from it for a while, so don't immediately receive
	// another packet in to the same physical page.
}
  800855:	5d                   	pop    %ebp
  800856:	c3                   	ret    
	...

00800858 <output>:

extern union Nsipc nsipcbuf;

void
output(envid_t ns_envid)
{
  800858:	55                   	push   %ebp
  800859:	89 e5                	mov    %esp,%ebp
  80085b:	56                   	push   %esi
  80085c:	53                   	push   %ebx
  80085d:	83 ec 10             	sub    $0x10,%esp
  800860:	8b 75 08             	mov    0x8(%ebp),%esi
	binaryname = "ns_output";
  800863:	c7 05 00 50 81 00 a0 	movl   $0x8121a0,0x815000
  80086a:	21 81 00 
	// 	- read a packet from the network server
	//	- send the packet to the device driver
    int r;

    while (1) {
        r = sys_ipc_recv(&nsipcbuf);
  80086d:	bb 00 e0 b3 00       	mov    $0xb3e000,%ebx
  800872:	89 1c 24             	mov    %ebx,(%esp)
  800875:	e8 6b 0d 00 00       	call   8015e5 <sys_ipc_recv>
        if ((thisenv->env_ipc_from != ns_envid) ||
  80087a:	a1 74 c2 b3 00       	mov    0xb3c274,%eax
  80087f:	8b 50 74             	mov    0x74(%eax),%edx
  800882:	39 f2                	cmp    %esi,%edx
  800884:	75 ec                	jne    800872 <output+0x1a>
            (thisenv->env_ipc_value != NSREQ_OUTPUT)) {
  800886:	8b 40 70             	mov    0x70(%eax),%eax
	//	- send the packet to the device driver
    int r;

    while (1) {
        r = sys_ipc_recv(&nsipcbuf);
        if ((thisenv->env_ipc_from != ns_envid) ||
  800889:	83 f8 0b             	cmp    $0xb,%eax
  80088c:	75 e4                	jne    800872 <output+0x1a>
            (thisenv->env_ipc_value != NSREQ_OUTPUT)) {
            continue;
        }

        while ((r = sys_net_try_send(nsipcbuf.pkt.jp_data,
  80088e:	8b 03                	mov    (%ebx),%eax
  800890:	89 44 24 04          	mov    %eax,0x4(%esp)
  800894:	c7 04 24 04 e0 b3 00 	movl   $0xb3e004,(%esp)
  80089b:	e8 d2 0c 00 00       	call   801572 <sys_net_try_send>
  8008a0:	85 c0                	test   %eax,%eax
  8008a2:	78 ea                	js     80088e <output+0x36>
  8008a4:	eb cc                	jmp    800872 <output+0x1a>
	...

008008a8 <libmain>:
const volatile struct Env *thisenv;
const char *binaryname = "<unknown>";

void
libmain(int argc, char **argv)
{
  8008a8:	55                   	push   %ebp
  8008a9:	89 e5                	mov    %esp,%ebp
  8008ab:	83 ec 18             	sub    $0x18,%esp
  8008ae:	89 5d f8             	mov    %ebx,-0x8(%ebp)
  8008b1:	89 75 fc             	mov    %esi,-0x4(%ebp)
  8008b4:	8b 75 08             	mov    0x8(%ebp),%esi
  8008b7:	8b 5d 0c             	mov    0xc(%ebp),%ebx
	// set thisenv to point at our Env structure in envs[].
	// LAB 3: Your code here.
	thisenv = envs + ENVX(sys_getenvid ());
  8008ba:	e8 58 0f 00 00       	call   801817 <sys_getenvid>
  8008bf:	25 ff 03 00 00       	and    $0x3ff,%eax
  8008c4:	c1 e0 07             	shl    $0x7,%eax
  8008c7:	05 00 00 c0 ee       	add    $0xeec00000,%eax
  8008cc:	a3 74 c2 b3 00       	mov    %eax,0xb3c274

	// save the name of the program so that panic() can use it
	if (argc > 0)
  8008d1:	85 f6                	test   %esi,%esi
  8008d3:	7e 07                	jle    8008dc <libmain+0x34>
		binaryname = argv[0];
  8008d5:	8b 03                	mov    (%ebx),%eax
  8008d7:	a3 00 50 81 00       	mov    %eax,0x815000

	// call user main routine
	umain(argc, argv);
  8008dc:	89 5c 24 04          	mov    %ebx,0x4(%esp)
  8008e0:	89 34 24             	mov    %esi,(%esp)
  8008e3:	e8 70 f7 ff ff       	call   800058 <umain>

	// exit gracefully
	exit();
  8008e8:	e8 0b 00 00 00       	call   8008f8 <exit>
}
  8008ed:	8b 5d f8             	mov    -0x8(%ebp),%ebx
  8008f0:	8b 75 fc             	mov    -0x4(%ebp),%esi
  8008f3:	89 ec                	mov    %ebp,%esp
  8008f5:	5d                   	pop    %ebp
  8008f6:	c3                   	ret    
	...

008008f8 <exit>:

#include <inc/lib.h>

void
exit(void)
{
  8008f8:	55                   	push   %ebp
  8008f9:	89 e5                	mov    %esp,%ebp
  8008fb:	83 ec 18             	sub    $0x18,%esp
	close_all();
  8008fe:	e8 86 1a 00 00       	call   802389 <close_all>
	sys_env_destroy(0);
  800903:	c7 04 24 00 00 00 00 	movl   $0x0,(%esp)
  80090a:	e8 43 0f 00 00       	call   801852 <sys_env_destroy>
}
  80090f:	c9                   	leave  
  800910:	c3                   	ret    
  800911:	00 00                	add    %al,(%eax)
	...

00800914 <_panic>:
 * It prints "panic: <message>", then causes a breakpoint exception,
 * which causes JOS to enter the JOS kernel monitor.
 */
void
_panic(const char *file, int line, const char *fmt, ...)
{
  800914:	55                   	push   %ebp
  800915:	89 e5                	mov    %esp,%ebp
  800917:	56                   	push   %esi
  800918:	53                   	push   %ebx
  800919:	83 ec 20             	sub    $0x20,%esp
 * Panic is called on unresolvable fatal errors.
 * It prints "panic: <message>", then causes a breakpoint exception,
 * which causes JOS to enter the JOS kernel monitor.
 */
void
_panic(const char *file, int line, const char *fmt, ...)
  80091c:	8d 75 14             	lea    0x14(%ebp),%esi
	va_list ap;

	va_start(ap, fmt);

	// Print the panic message
	cprintf("[%08x] user panic in %s at %s:%d: ",
  80091f:	8b 1d 00 50 81 00    	mov    0x815000,%ebx
  800925:	e8 ed 0e 00 00       	call   801817 <sys_getenvid>
  80092a:	8b 55 0c             	mov    0xc(%ebp),%edx
  80092d:	89 54 24 10          	mov    %edx,0x10(%esp)
  800931:	8b 55 08             	mov    0x8(%ebp),%edx
  800934:	89 54 24 0c          	mov    %edx,0xc(%esp)
  800938:	89 5c 24 08          	mov    %ebx,0x8(%esp)
  80093c:	89 44 24 04          	mov    %eax,0x4(%esp)
  800940:	c7 04 24 b4 21 81 00 	movl   $0x8121b4,(%esp)
  800947:	e8 81 00 00 00       	call   8009cd <cprintf>
		sys_getenvid(), binaryname, file, line);
	vcprintf(fmt, ap);
  80094c:	89 74 24 04          	mov    %esi,0x4(%esp)
  800950:	8b 45 10             	mov    0x10(%ebp),%eax
  800953:	89 04 24             	mov    %eax,(%esp)
  800956:	e8 11 00 00 00       	call   80096c <vcprintf>
	cprintf("\n");
  80095b:	c7 04 24 aa 1f 81 00 	movl   $0x811faa,(%esp)
  800962:	e8 66 00 00 00       	call   8009cd <cprintf>

	// Cause a breakpoint exception
	while (1)
		asm volatile("int3");
  800967:	cc                   	int3   
  800968:	eb fd                	jmp    800967 <_panic+0x53>
	...

0080096c <vcprintf>:
	b->cnt++;
}

int
vcprintf(const char *fmt, va_list ap)
{
  80096c:	55                   	push   %ebp
  80096d:	89 e5                	mov    %esp,%ebp
  80096f:	81 ec 28 01 00 00    	sub    $0x128,%esp
	struct printbuf b;

	b.idx = 0;
  800975:	c7 85 f0 fe ff ff 00 	movl   $0x0,-0x110(%ebp)
  80097c:	00 00 00 
	b.cnt = 0;
  80097f:	c7 85 f4 fe ff ff 00 	movl   $0x0,-0x10c(%ebp)
  800986:	00 00 00 
	vprintfmt((void*)putch, &b, fmt, ap);
  800989:	8b 45 0c             	mov    0xc(%ebp),%eax
  80098c:	89 44 24 0c          	mov    %eax,0xc(%esp)
  800990:	8b 45 08             	mov    0x8(%ebp),%eax
  800993:	89 44 24 08          	mov    %eax,0x8(%esp)
  800997:	8d 85 f0 fe ff ff    	lea    -0x110(%ebp),%eax
  80099d:	89 44 24 04          	mov    %eax,0x4(%esp)
  8009a1:	c7 04 24 e7 09 80 00 	movl   $0x8009e7,(%esp)
  8009a8:	e8 d0 01 00 00       	call   800b7d <vprintfmt>
	sys_cputs(b.buf, b.idx);
  8009ad:	8b 85 f0 fe ff ff    	mov    -0x110(%ebp),%eax
  8009b3:	89 44 24 04          	mov    %eax,0x4(%esp)
  8009b7:	8d 85 f8 fe ff ff    	lea    -0x108(%ebp),%eax
  8009bd:	89 04 24             	mov    %eax,(%esp)
  8009c0:	e8 01 0f 00 00       	call   8018c6 <sys_cputs>

	return b.cnt;
}
  8009c5:	8b 85 f4 fe ff ff    	mov    -0x10c(%ebp),%eax
  8009cb:	c9                   	leave  
  8009cc:	c3                   	ret    

008009cd <cprintf>:

int
cprintf(const char *fmt, ...)
{
  8009cd:	55                   	push   %ebp
  8009ce:	89 e5                	mov    %esp,%ebp
  8009d0:	83 ec 18             	sub    $0x18,%esp

	return b.cnt;
}

int
cprintf(const char *fmt, ...)
  8009d3:	8d 45 0c             	lea    0xc(%ebp),%eax
{
	va_list ap;
	int cnt;

	va_start(ap, fmt);
	cnt = vcprintf(fmt, ap);
  8009d6:	89 44 24 04          	mov    %eax,0x4(%esp)
  8009da:	8b 45 08             	mov    0x8(%ebp),%eax
  8009dd:	89 04 24             	mov    %eax,(%esp)
  8009e0:	e8 87 ff ff ff       	call   80096c <vcprintf>
	va_end(ap);

	return cnt;
}
  8009e5:	c9                   	leave  
  8009e6:	c3                   	ret    

008009e7 <putch>:
};


static void
putch(int ch, struct printbuf *b)
{
  8009e7:	55                   	push   %ebp
  8009e8:	89 e5                	mov    %esp,%ebp
  8009ea:	53                   	push   %ebx
  8009eb:	83 ec 14             	sub    $0x14,%esp
  8009ee:	8b 5d 0c             	mov    0xc(%ebp),%ebx
	b->buf[b->idx++] = ch;
  8009f1:	8b 03                	mov    (%ebx),%eax
  8009f3:	8b 55 08             	mov    0x8(%ebp),%edx
  8009f6:	88 54 03 08          	mov    %dl,0x8(%ebx,%eax,1)
  8009fa:	83 c0 01             	add    $0x1,%eax
  8009fd:	89 03                	mov    %eax,(%ebx)
	if (b->idx == 256-1) {
  8009ff:	3d ff 00 00 00       	cmp    $0xff,%eax
  800a04:	75 19                	jne    800a1f <putch+0x38>
		sys_cputs(b->buf, b->idx);
  800a06:	c7 44 24 04 ff 00 00 	movl   $0xff,0x4(%esp)
  800a0d:	00 
  800a0e:	8d 43 08             	lea    0x8(%ebx),%eax
  800a11:	89 04 24             	mov    %eax,(%esp)
  800a14:	e8 ad 0e 00 00       	call   8018c6 <sys_cputs>
		b->idx = 0;
  800a19:	c7 03 00 00 00 00    	movl   $0x0,(%ebx)
	}
	b->cnt++;
  800a1f:	83 43 04 01          	addl   $0x1,0x4(%ebx)
}
  800a23:	83 c4 14             	add    $0x14,%esp
  800a26:	5b                   	pop    %ebx
  800a27:	5d                   	pop    %ebp
  800a28:	c3                   	ret    
  800a29:	00 00                	add    %al,(%eax)
  800a2b:	00 00                	add    %al,(%eax)
  800a2d:	00 00                	add    %al,(%eax)
	...

00800a30 <printnum>:
 * using specified putch function and associated pointer putdat.
 */
static void
printnum(void (*putch)(int, void*), void *putdat,
	 unsigned long long num, unsigned base, int width, int padc)
{
  800a30:	55                   	push   %ebp
  800a31:	89 e5                	mov    %esp,%ebp
  800a33:	57                   	push   %edi
  800a34:	56                   	push   %esi
  800a35:	53                   	push   %ebx
  800a36:	83 ec 4c             	sub    $0x4c,%esp
  800a39:	89 45 e4             	mov    %eax,-0x1c(%ebp)
  800a3c:	89 d6                	mov    %edx,%esi
  800a3e:	8b 45 08             	mov    0x8(%ebp),%eax
  800a41:	89 45 d8             	mov    %eax,-0x28(%ebp)
  800a44:	8b 55 0c             	mov    0xc(%ebp),%edx
  800a47:	89 55 e0             	mov    %edx,-0x20(%ebp)
  800a4a:	8b 45 10             	mov    0x10(%ebp),%eax
  800a4d:	8b 5d 14             	mov    0x14(%ebp),%ebx
  800a50:	8b 7d 18             	mov    0x18(%ebp),%edi
	// first recursively print all preceding (more significant) digits
	if (num >= base) {
  800a53:	89 45 dc             	mov    %eax,-0x24(%ebp)
  800a56:	b9 00 00 00 00       	mov    $0x0,%ecx
  800a5b:	39 d1                	cmp    %edx,%ecx
  800a5d:	72 15                	jb     800a74 <printnum+0x44>
  800a5f:	77 07                	ja     800a68 <printnum+0x38>
  800a61:	8b 55 d8             	mov    -0x28(%ebp),%edx
  800a64:	39 d0                	cmp    %edx,%eax
  800a66:	76 0c                	jbe    800a74 <printnum+0x44>
		printnum(putch, putdat, num / base, base, width - 1, padc);
	} else {
		// print any needed pad characters before first digit
		while (--width > 0)
  800a68:	83 eb 01             	sub    $0x1,%ebx
  800a6b:	85 db                	test   %ebx,%ebx
  800a6d:	8d 76 00             	lea    0x0(%esi),%esi
  800a70:	7f 61                	jg     800ad3 <printnum+0xa3>
  800a72:	eb 70                	jmp    800ae4 <printnum+0xb4>
printnum(void (*putch)(int, void*), void *putdat,
	 unsigned long long num, unsigned base, int width, int padc)
{
	// first recursively print all preceding (more significant) digits
	if (num >= base) {
		printnum(putch, putdat, num / base, base, width - 1, padc);
  800a74:	89 7c 24 10          	mov    %edi,0x10(%esp)
  800a78:	83 eb 01             	sub    $0x1,%ebx
  800a7b:	89 5c 24 0c          	mov    %ebx,0xc(%esp)
  800a7f:	89 44 24 08          	mov    %eax,0x8(%esp)
  800a83:	8b 4c 24 08          	mov    0x8(%esp),%ecx
  800a87:	8b 5c 24 0c          	mov    0xc(%esp),%ebx
  800a8b:	89 4d d0             	mov    %ecx,-0x30(%ebp)
  800a8e:	89 5d d4             	mov    %ebx,-0x2c(%ebp)
  800a91:	8b 5d dc             	mov    -0x24(%ebp),%ebx
  800a94:	89 5c 24 08          	mov    %ebx,0x8(%esp)
  800a98:	c7 44 24 0c 00 00 00 	movl   $0x0,0xc(%esp)
  800a9f:	00 
  800aa0:	8b 45 d8             	mov    -0x28(%ebp),%eax
  800aa3:	89 04 24             	mov    %eax,(%esp)
  800aa6:	8b 55 e0             	mov    -0x20(%ebp),%edx
  800aa9:	89 54 24 04          	mov    %edx,0x4(%esp)
  800aad:	e8 fe 11 01 00       	call   811cb0 <__udivdi3>
  800ab2:	8b 4d d0             	mov    -0x30(%ebp),%ecx
  800ab5:	8b 5d d4             	mov    -0x2c(%ebp),%ebx
  800ab8:	89 4c 24 08          	mov    %ecx,0x8(%esp)
  800abc:	89 5c 24 0c          	mov    %ebx,0xc(%esp)
  800ac0:	89 04 24             	mov    %eax,(%esp)
  800ac3:	89 54 24 04          	mov    %edx,0x4(%esp)
  800ac7:	89 f2                	mov    %esi,%edx
  800ac9:	8b 45 e4             	mov    -0x1c(%ebp),%eax
  800acc:	e8 5f ff ff ff       	call   800a30 <printnum>
  800ad1:	eb 11                	jmp    800ae4 <printnum+0xb4>
	} else {
		// print any needed pad characters before first digit
		while (--width > 0)
			putch(padc, putdat);
  800ad3:	89 74 24 04          	mov    %esi,0x4(%esp)
  800ad7:	89 3c 24             	mov    %edi,(%esp)
  800ada:	ff 55 e4             	call   *-0x1c(%ebp)
	// first recursively print all preceding (more significant) digits
	if (num >= base) {
		printnum(putch, putdat, num / base, base, width - 1, padc);
	} else {
		// print any needed pad characters before first digit
		while (--width > 0)
  800add:	83 eb 01             	sub    $0x1,%ebx
  800ae0:	85 db                	test   %ebx,%ebx
  800ae2:	7f ef                	jg     800ad3 <printnum+0xa3>
			putch(padc, putdat);
	}

	// then print this (the least significant) digit
	putch("0123456789abcdef"[num % base], putdat);
  800ae4:	89 74 24 04          	mov    %esi,0x4(%esp)
  800ae8:	8b 74 24 04          	mov    0x4(%esp),%esi
  800aec:	8b 45 dc             	mov    -0x24(%ebp),%eax
  800aef:	89 44 24 08          	mov    %eax,0x8(%esp)
  800af3:	c7 44 24 0c 00 00 00 	movl   $0x0,0xc(%esp)
  800afa:	00 
  800afb:	8b 55 d8             	mov    -0x28(%ebp),%edx
  800afe:	89 14 24             	mov    %edx,(%esp)
  800b01:	8b 4d e0             	mov    -0x20(%ebp),%ecx
  800b04:	89 4c 24 04          	mov    %ecx,0x4(%esp)
  800b08:	e8 d3 12 01 00       	call   811de0 <__umoddi3>
  800b0d:	89 74 24 04          	mov    %esi,0x4(%esp)
  800b11:	0f be 80 d7 21 81 00 	movsbl 0x8121d7(%eax),%eax
  800b18:	89 04 24             	mov    %eax,(%esp)
  800b1b:	ff 55 e4             	call   *-0x1c(%ebp)
}
  800b1e:	83 c4 4c             	add    $0x4c,%esp
  800b21:	5b                   	pop    %ebx
  800b22:	5e                   	pop    %esi
  800b23:	5f                   	pop    %edi
  800b24:	5d                   	pop    %ebp
  800b25:	c3                   	ret    

00800b26 <getuint>:

// Get an unsigned int of various possible sizes from a varargs list,
// depending on the lflag parameter.
static unsigned long long
getuint(va_list *ap, int lflag)
{
  800b26:	55                   	push   %ebp
  800b27:	89 e5                	mov    %esp,%ebp
	if (lflag >= 2)
  800b29:	83 fa 01             	cmp    $0x1,%edx
  800b2c:	7e 0e                	jle    800b3c <getuint+0x16>
		return va_arg(*ap, unsigned long long);
  800b2e:	8b 10                	mov    (%eax),%edx
  800b30:	8d 4a 08             	lea    0x8(%edx),%ecx
  800b33:	89 08                	mov    %ecx,(%eax)
  800b35:	8b 02                	mov    (%edx),%eax
  800b37:	8b 52 04             	mov    0x4(%edx),%edx
  800b3a:	eb 22                	jmp    800b5e <getuint+0x38>
	else if (lflag)
  800b3c:	85 d2                	test   %edx,%edx
  800b3e:	74 10                	je     800b50 <getuint+0x2a>
		return va_arg(*ap, unsigned long);
  800b40:	8b 10                	mov    (%eax),%edx
  800b42:	8d 4a 04             	lea    0x4(%edx),%ecx
  800b45:	89 08                	mov    %ecx,(%eax)
  800b47:	8b 02                	mov    (%edx),%eax
  800b49:	ba 00 00 00 00       	mov    $0x0,%edx
  800b4e:	eb 0e                	jmp    800b5e <getuint+0x38>
	else
		return va_arg(*ap, unsigned int);
  800b50:	8b 10                	mov    (%eax),%edx
  800b52:	8d 4a 04             	lea    0x4(%edx),%ecx
  800b55:	89 08                	mov    %ecx,(%eax)
  800b57:	8b 02                	mov    (%edx),%eax
  800b59:	ba 00 00 00 00       	mov    $0x0,%edx
}
  800b5e:	5d                   	pop    %ebp
  800b5f:	c3                   	ret    

00800b60 <sprintputch>:
	int cnt;
};

static void
sprintputch(int ch, struct sprintbuf *b)
{
  800b60:	55                   	push   %ebp
  800b61:	89 e5                	mov    %esp,%ebp
  800b63:	8b 45 0c             	mov    0xc(%ebp),%eax
	b->cnt++;
  800b66:	83 40 08 01          	addl   $0x1,0x8(%eax)
	if (b->buf < b->ebuf)
  800b6a:	8b 10                	mov    (%eax),%edx
  800b6c:	3b 50 04             	cmp    0x4(%eax),%edx
  800b6f:	73 0a                	jae    800b7b <sprintputch+0x1b>
		*b->buf++ = ch;
  800b71:	8b 4d 08             	mov    0x8(%ebp),%ecx
  800b74:	88 0a                	mov    %cl,(%edx)
  800b76:	83 c2 01             	add    $0x1,%edx
  800b79:	89 10                	mov    %edx,(%eax)
}
  800b7b:	5d                   	pop    %ebp
  800b7c:	c3                   	ret    

00800b7d <vprintfmt>:
// Main function to format and print a string.
void printfmt(void (*putch)(int, void*), void *putdat, const char *fmt, ...);

void
vprintfmt(void (*putch)(int, void*), void *putdat, const char *fmt, va_list ap)
{
  800b7d:	55                   	push   %ebp
  800b7e:	89 e5                	mov    %esp,%ebp
  800b80:	57                   	push   %edi
  800b81:	56                   	push   %esi
  800b82:	53                   	push   %ebx
  800b83:	83 ec 5c             	sub    $0x5c,%esp
  800b86:	8b 7d 08             	mov    0x8(%ebp),%edi
  800b89:	8b 75 0c             	mov    0xc(%ebp),%esi
  800b8c:	8b 5d 10             	mov    0x10(%ebp),%ebx
		case '#':
			altflag = 1;
			goto reswitch;

		process_precision:
			if (width < 0)
  800b8f:	c7 45 c8 ff ff ff ff 	movl   $0xffffffff,-0x38(%ebp)
  800b96:	eb 11                	jmp    800ba9 <vprintfmt+0x2c>
	int base, lflag, width, precision, altflag;
	char padc;

	while (1) {
		while ((ch = *(unsigned char *) fmt++) != '%') {
			if (ch == '\0')
  800b98:	85 c0                	test   %eax,%eax
  800b9a:	0f 84 68 04 00 00    	je     801008 <vprintfmt+0x48b>
				return;
			putch(ch, putdat);
  800ba0:	89 74 24 04          	mov    %esi,0x4(%esp)
  800ba4:	89 04 24             	mov    %eax,(%esp)
  800ba7:	ff d7                	call   *%edi
	unsigned long long num;
	int base, lflag, width, precision, altflag;
	char padc;

	while (1) {
		while ((ch = *(unsigned char *) fmt++) != '%') {
  800ba9:	0f b6 03             	movzbl (%ebx),%eax
  800bac:	83 c3 01             	add    $0x1,%ebx
  800baf:	83 f8 25             	cmp    $0x25,%eax
  800bb2:	75 e4                	jne    800b98 <vprintfmt+0x1b>
  800bb4:	c7 45 cc ff ff ff ff 	movl   $0xffffffff,-0x34(%ebp)
  800bbb:	c7 45 d4 ff ff ff ff 	movl   $0xffffffff,-0x2c(%ebp)
  800bc2:	b9 00 00 00 00       	mov    $0x0,%ecx
  800bc7:	c6 45 e0 20          	movb   $0x20,-0x20(%ebp)
  800bcb:	c7 45 d8 00 00 00 00 	movl   $0x0,-0x28(%ebp)
  800bd2:	eb 06                	jmp    800bda <vprintfmt+0x5d>
  800bd4:	c6 45 e0 2d          	movb   $0x2d,-0x20(%ebp)
  800bd8:	89 c3                	mov    %eax,%ebx
		width = -1;
		precision = -1;
		lflag = 0;
		altflag = 0;
	reswitch:
		switch (ch = *(unsigned char *) fmt++) {
  800bda:	0f b6 13             	movzbl (%ebx),%edx
  800bdd:	0f b6 c2             	movzbl %dl,%eax
  800be0:	89 45 e4             	mov    %eax,-0x1c(%ebp)
  800be3:	8d 43 01             	lea    0x1(%ebx),%eax
  800be6:	83 ea 23             	sub    $0x23,%edx
  800be9:	80 fa 55             	cmp    $0x55,%dl
  800bec:	0f 87 f9 03 00 00    	ja     800feb <vprintfmt+0x46e>
  800bf2:	0f b6 d2             	movzbl %dl,%edx
  800bf5:	ff 24 95 c0 23 81 00 	jmp    *0x8123c0(,%edx,4)
  800bfc:	c6 45 e0 30          	movb   $0x30,-0x20(%ebp)
  800c00:	eb d6                	jmp    800bd8 <vprintfmt+0x5b>
		case '6':
		case '7':
		case '8':
		case '9':
			for (precision = 0; ; ++fmt) {
				precision = precision * 10 + ch - '0';
  800c02:	8b 55 e4             	mov    -0x1c(%ebp),%edx
  800c05:	83 ea 30             	sub    $0x30,%edx
  800c08:	89 55 cc             	mov    %edx,-0x34(%ebp)
				ch = *fmt;
  800c0b:	0f be 10             	movsbl (%eax),%edx
				if (ch < '0' || ch > '9')
  800c0e:	8d 5a d0             	lea    -0x30(%edx),%ebx
  800c11:	83 fb 09             	cmp    $0x9,%ebx
  800c14:	77 54                	ja     800c6a <vprintfmt+0xed>
  800c16:	89 4d d0             	mov    %ecx,-0x30(%ebp)
  800c19:	8b 4d cc             	mov    -0x34(%ebp),%ecx
		case '5':
		case '6':
		case '7':
		case '8':
		case '9':
			for (precision = 0; ; ++fmt) {
  800c1c:	83 c0 01             	add    $0x1,%eax
				precision = precision * 10 + ch - '0';
  800c1f:	8d 0c 89             	lea    (%ecx,%ecx,4),%ecx
  800c22:	8d 4c 4a d0          	lea    -0x30(%edx,%ecx,2),%ecx
				ch = *fmt;
  800c26:	0f be 10             	movsbl (%eax),%edx
				if (ch < '0' || ch > '9')
  800c29:	8d 5a d0             	lea    -0x30(%edx),%ebx
  800c2c:	83 fb 09             	cmp    $0x9,%ebx
  800c2f:	76 eb                	jbe    800c1c <vprintfmt+0x9f>
  800c31:	89 4d cc             	mov    %ecx,-0x34(%ebp)
  800c34:	8b 4d d0             	mov    -0x30(%ebp),%ecx
  800c37:	eb 31                	jmp    800c6a <vprintfmt+0xed>
					break;
			}
			goto process_precision;

		case '*':
			precision = va_arg(ap, int);
  800c39:	8b 55 14             	mov    0x14(%ebp),%edx
  800c3c:	8d 5a 04             	lea    0x4(%edx),%ebx
  800c3f:	89 5d 14             	mov    %ebx,0x14(%ebp)
  800c42:	8b 12                	mov    (%edx),%edx
  800c44:	89 55 cc             	mov    %edx,-0x34(%ebp)
			goto process_precision;
  800c47:	eb 21                	jmp    800c6a <vprintfmt+0xed>

		case '.':
			if (width < 0)
  800c49:	83 7d d4 00          	cmpl   $0x0,-0x2c(%ebp)
  800c4d:	ba 00 00 00 00       	mov    $0x0,%edx
  800c52:	0f 49 55 d4          	cmovns -0x2c(%ebp),%edx
  800c56:	89 55 d4             	mov    %edx,-0x2c(%ebp)
  800c59:	e9 7a ff ff ff       	jmp    800bd8 <vprintfmt+0x5b>
  800c5e:	c7 45 d8 01 00 00 00 	movl   $0x1,-0x28(%ebp)
				width = 0;
			goto reswitch;

		case '#':
			altflag = 1;
			goto reswitch;
  800c65:	e9 6e ff ff ff       	jmp    800bd8 <vprintfmt+0x5b>

		process_precision:
			if (width < 0)
  800c6a:	83 7d d4 00          	cmpl   $0x0,-0x2c(%ebp)
  800c6e:	0f 89 64 ff ff ff    	jns    800bd8 <vprintfmt+0x5b>
  800c74:	8b 55 cc             	mov    -0x34(%ebp),%edx
  800c77:	89 55 d4             	mov    %edx,-0x2c(%ebp)
  800c7a:	8b 55 c8             	mov    -0x38(%ebp),%edx
  800c7d:	89 55 cc             	mov    %edx,-0x34(%ebp)
  800c80:	e9 53 ff ff ff       	jmp    800bd8 <vprintfmt+0x5b>
				width = precision, precision = -1;
			goto reswitch;

		// long flag (doubled for long long)
		case 'l':
			lflag++;
  800c85:	83 c1 01             	add    $0x1,%ecx
			goto reswitch;
  800c88:	e9 4b ff ff ff       	jmp    800bd8 <vprintfmt+0x5b>
  800c8d:	89 45 d0             	mov    %eax,-0x30(%ebp)

		// character
		case 'c':
			putch(va_arg(ap, int), putdat);
  800c90:	8b 45 14             	mov    0x14(%ebp),%eax
  800c93:	8d 50 04             	lea    0x4(%eax),%edx
  800c96:	89 55 14             	mov    %edx,0x14(%ebp)
  800c99:	89 74 24 04          	mov    %esi,0x4(%esp)
  800c9d:	8b 00                	mov    (%eax),%eax
  800c9f:	89 04 24             	mov    %eax,(%esp)
  800ca2:	ff d7                	call   *%edi
  800ca4:	8b 5d d0             	mov    -0x30(%ebp),%ebx
			break;
  800ca7:	e9 fd fe ff ff       	jmp    800ba9 <vprintfmt+0x2c>
  800cac:	89 45 d0             	mov    %eax,-0x30(%ebp)

		// error message
		case 'e':
			err = va_arg(ap, int);
  800caf:	8b 45 14             	mov    0x14(%ebp),%eax
  800cb2:	8d 50 04             	lea    0x4(%eax),%edx
  800cb5:	89 55 14             	mov    %edx,0x14(%ebp)
  800cb8:	8b 00                	mov    (%eax),%eax
  800cba:	89 c2                	mov    %eax,%edx
  800cbc:	c1 fa 1f             	sar    $0x1f,%edx
  800cbf:	31 d0                	xor    %edx,%eax
  800cc1:	29 d0                	sub    %edx,%eax
			if (err < 0)
				err = -err;
			if (err >= MAXERROR || (p = error_string[err]) == NULL)
  800cc3:	83 f8 0f             	cmp    $0xf,%eax
  800cc6:	7f 0b                	jg     800cd3 <vprintfmt+0x156>
  800cc8:	8b 14 85 20 25 81 00 	mov    0x812520(,%eax,4),%edx
  800ccf:	85 d2                	test   %edx,%edx
  800cd1:	75 20                	jne    800cf3 <vprintfmt+0x176>
				printfmt(putch, putdat, "error %d", err);
  800cd3:	89 44 24 0c          	mov    %eax,0xc(%esp)
  800cd7:	c7 44 24 08 e8 21 81 	movl   $0x8121e8,0x8(%esp)
  800cde:	00 
  800cdf:	89 74 24 04          	mov    %esi,0x4(%esp)
  800ce3:	89 3c 24             	mov    %edi,(%esp)
  800ce6:	e8 a5 03 00 00       	call   801090 <printfmt>
  800ceb:	8b 5d d0             	mov    -0x30(%ebp),%ebx
		// error message
		case 'e':
			err = va_arg(ap, int);
			if (err < 0)
				err = -err;
			if (err >= MAXERROR || (p = error_string[err]) == NULL)
  800cee:	e9 b6 fe ff ff       	jmp    800ba9 <vprintfmt+0x2c>
				printfmt(putch, putdat, "error %d", err);
			else
				printfmt(putch, putdat, "%s", p);
  800cf3:	89 54 24 0c          	mov    %edx,0xc(%esp)
  800cf7:	c7 44 24 08 b3 28 81 	movl   $0x8128b3,0x8(%esp)
  800cfe:	00 
  800cff:	89 74 24 04          	mov    %esi,0x4(%esp)
  800d03:	89 3c 24             	mov    %edi,(%esp)
  800d06:	e8 85 03 00 00       	call   801090 <printfmt>
  800d0b:	8b 5d d0             	mov    -0x30(%ebp),%ebx
  800d0e:	e9 96 fe ff ff       	jmp    800ba9 <vprintfmt+0x2c>
  800d13:	89 45 d0             	mov    %eax,-0x30(%ebp)
  800d16:	89 c3                	mov    %eax,%ebx
  800d18:	8b 4d cc             	mov    -0x34(%ebp),%ecx
  800d1b:	8b 45 d4             	mov    -0x2c(%ebp),%eax
  800d1e:	89 45 c4             	mov    %eax,-0x3c(%ebp)
			break;

		// string
		case 's':
			if ((p = va_arg(ap, char *)) == NULL)
  800d21:	8b 45 14             	mov    0x14(%ebp),%eax
  800d24:	8d 50 04             	lea    0x4(%eax),%edx
  800d27:	89 55 14             	mov    %edx,0x14(%ebp)
  800d2a:	8b 00                	mov    (%eax),%eax
  800d2c:	89 45 e4             	mov    %eax,-0x1c(%ebp)
  800d2f:	85 c0                	test   %eax,%eax
  800d31:	b8 f1 21 81 00       	mov    $0x8121f1,%eax
  800d36:	0f 45 45 e4          	cmovne -0x1c(%ebp),%eax
  800d3a:	89 45 e4             	mov    %eax,-0x1c(%ebp)
				p = "(null)";
			if (width > 0 && padc != '-')
  800d3d:	83 7d c4 00          	cmpl   $0x0,-0x3c(%ebp)
  800d41:	7e 06                	jle    800d49 <vprintfmt+0x1cc>
  800d43:	80 7d e0 2d          	cmpb   $0x2d,-0x20(%ebp)
  800d47:	75 13                	jne    800d5c <vprintfmt+0x1df>
				for (width -= strnlen(p, precision); width > 0; width--)
					putch(padc, putdat);
			for (; (ch = *p++) != '\0' && (precision < 0 || --precision >= 0); width--)
  800d49:	8b 55 e4             	mov    -0x1c(%ebp),%edx
  800d4c:	0f be 02             	movsbl (%edx),%eax
  800d4f:	85 c0                	test   %eax,%eax
  800d51:	0f 85 a2 00 00 00    	jne    800df9 <vprintfmt+0x27c>
  800d57:	e9 8f 00 00 00       	jmp    800deb <vprintfmt+0x26e>
		// string
		case 's':
			if ((p = va_arg(ap, char *)) == NULL)
				p = "(null)";
			if (width > 0 && padc != '-')
				for (width -= strnlen(p, precision); width > 0; width--)
  800d5c:	89 4c 24 04          	mov    %ecx,0x4(%esp)
  800d60:	8b 4d e4             	mov    -0x1c(%ebp),%ecx
  800d63:	89 0c 24             	mov    %ecx,(%esp)
  800d66:	e8 70 03 00 00       	call   8010db <strnlen>
  800d6b:	8b 55 c4             	mov    -0x3c(%ebp),%edx
  800d6e:	29 c2                	sub    %eax,%edx
  800d70:	89 55 d4             	mov    %edx,-0x2c(%ebp)
  800d73:	85 d2                	test   %edx,%edx
  800d75:	7e d2                	jle    800d49 <vprintfmt+0x1cc>
					putch(padc, putdat);
  800d77:	0f be 4d e0          	movsbl -0x20(%ebp),%ecx
  800d7b:	89 4d e0             	mov    %ecx,-0x20(%ebp)
  800d7e:	89 5d c4             	mov    %ebx,-0x3c(%ebp)
  800d81:	89 d3                	mov    %edx,%ebx
  800d83:	89 74 24 04          	mov    %esi,0x4(%esp)
  800d87:	8b 45 e0             	mov    -0x20(%ebp),%eax
  800d8a:	89 04 24             	mov    %eax,(%esp)
  800d8d:	ff d7                	call   *%edi
		// string
		case 's':
			if ((p = va_arg(ap, char *)) == NULL)
				p = "(null)";
			if (width > 0 && padc != '-')
				for (width -= strnlen(p, precision); width > 0; width--)
  800d8f:	83 eb 01             	sub    $0x1,%ebx
  800d92:	85 db                	test   %ebx,%ebx
  800d94:	7f ed                	jg     800d83 <vprintfmt+0x206>
  800d96:	8b 5d c4             	mov    -0x3c(%ebp),%ebx
  800d99:	c7 45 d4 00 00 00 00 	movl   $0x0,-0x2c(%ebp)
  800da0:	eb a7                	jmp    800d49 <vprintfmt+0x1cc>
					putch(padc, putdat);
			for (; (ch = *p++) != '\0' && (precision < 0 || --precision >= 0); width--)
				if (altflag && (ch < ' ' || ch > '~'))
  800da2:	83 7d d8 00          	cmpl   $0x0,-0x28(%ebp)
  800da6:	74 1b                	je     800dc3 <vprintfmt+0x246>
  800da8:	8d 50 e0             	lea    -0x20(%eax),%edx
  800dab:	83 fa 5e             	cmp    $0x5e,%edx
  800dae:	76 13                	jbe    800dc3 <vprintfmt+0x246>
					putch('?', putdat);
  800db0:	8b 55 e0             	mov    -0x20(%ebp),%edx
  800db3:	89 54 24 04          	mov    %edx,0x4(%esp)
  800db7:	c7 04 24 3f 00 00 00 	movl   $0x3f,(%esp)
  800dbe:	ff 55 e4             	call   *-0x1c(%ebp)
				p = "(null)";
			if (width > 0 && padc != '-')
				for (width -= strnlen(p, precision); width > 0; width--)
					putch(padc, putdat);
			for (; (ch = *p++) != '\0' && (precision < 0 || --precision >= 0); width--)
				if (altflag && (ch < ' ' || ch > '~'))
  800dc1:	eb 0d                	jmp    800dd0 <vprintfmt+0x253>
					putch('?', putdat);
				else
					putch(ch, putdat);
  800dc3:	8b 4d e0             	mov    -0x20(%ebp),%ecx
  800dc6:	89 4c 24 04          	mov    %ecx,0x4(%esp)
  800dca:	89 04 24             	mov    %eax,(%esp)
  800dcd:	ff 55 e4             	call   *-0x1c(%ebp)
			if ((p = va_arg(ap, char *)) == NULL)
				p = "(null)";
			if (width > 0 && padc != '-')
				for (width -= strnlen(p, precision); width > 0; width--)
					putch(padc, putdat);
			for (; (ch = *p++) != '\0' && (precision < 0 || --precision >= 0); width--)
  800dd0:	83 ef 01             	sub    $0x1,%edi
  800dd3:	0f be 03             	movsbl (%ebx),%eax
  800dd6:	85 c0                	test   %eax,%eax
  800dd8:	74 05                	je     800ddf <vprintfmt+0x262>
  800dda:	83 c3 01             	add    $0x1,%ebx
  800ddd:	eb 31                	jmp    800e10 <vprintfmt+0x293>
  800ddf:	89 7d d4             	mov    %edi,-0x2c(%ebp)
  800de2:	8b 7d e4             	mov    -0x1c(%ebp),%edi
  800de5:	8b 75 e0             	mov    -0x20(%ebp),%esi
  800de8:	8b 5d cc             	mov    -0x34(%ebp),%ebx
				if (altflag && (ch < ' ' || ch > '~'))
					putch('?', putdat);
				else
					putch(ch, putdat);
			for (; width > 0; width--)
  800deb:	83 7d d4 00          	cmpl   $0x0,-0x2c(%ebp)
  800def:	7f 36                	jg     800e27 <vprintfmt+0x2aa>
  800df1:	8b 5d d0             	mov    -0x30(%ebp),%ebx
  800df4:	e9 b0 fd ff ff       	jmp    800ba9 <vprintfmt+0x2c>
			if ((p = va_arg(ap, char *)) == NULL)
				p = "(null)";
			if (width > 0 && padc != '-')
				for (width -= strnlen(p, precision); width > 0; width--)
					putch(padc, putdat);
			for (; (ch = *p++) != '\0' && (precision < 0 || --precision >= 0); width--)
  800df9:	8b 55 e4             	mov    -0x1c(%ebp),%edx
  800dfc:	83 c2 01             	add    $0x1,%edx
  800dff:	89 7d e4             	mov    %edi,-0x1c(%ebp)
  800e02:	8b 7d d4             	mov    -0x2c(%ebp),%edi
  800e05:	89 75 e0             	mov    %esi,-0x20(%ebp)
  800e08:	8b 75 cc             	mov    -0x34(%ebp),%esi
  800e0b:	89 5d cc             	mov    %ebx,-0x34(%ebp)
  800e0e:	89 d3                	mov    %edx,%ebx
  800e10:	85 f6                	test   %esi,%esi
  800e12:	78 8e                	js     800da2 <vprintfmt+0x225>
  800e14:	83 ee 01             	sub    $0x1,%esi
  800e17:	79 89                	jns    800da2 <vprintfmt+0x225>
  800e19:	89 7d d4             	mov    %edi,-0x2c(%ebp)
  800e1c:	8b 7d e4             	mov    -0x1c(%ebp),%edi
  800e1f:	8b 75 e0             	mov    -0x20(%ebp),%esi
  800e22:	8b 5d cc             	mov    -0x34(%ebp),%ebx
  800e25:	eb c4                	jmp    800deb <vprintfmt+0x26e>
  800e27:	89 5d d8             	mov    %ebx,-0x28(%ebp)
  800e2a:	8b 5d d4             	mov    -0x2c(%ebp),%ebx
				if (altflag && (ch < ' ' || ch > '~'))
					putch('?', putdat);
				else
					putch(ch, putdat);
			for (; width > 0; width--)
				putch(' ', putdat);
  800e2d:	89 74 24 04          	mov    %esi,0x4(%esp)
  800e31:	c7 04 24 20 00 00 00 	movl   $0x20,(%esp)
  800e38:	ff d7                	call   *%edi
			for (; (ch = *p++) != '\0' && (precision < 0 || --precision >= 0); width--)
				if (altflag && (ch < ' ' || ch > '~'))
					putch('?', putdat);
				else
					putch(ch, putdat);
			for (; width > 0; width--)
  800e3a:	83 eb 01             	sub    $0x1,%ebx
  800e3d:	85 db                	test   %ebx,%ebx
  800e3f:	7f ec                	jg     800e2d <vprintfmt+0x2b0>
  800e41:	8b 5d d8             	mov    -0x28(%ebp),%ebx
  800e44:	e9 60 fd ff ff       	jmp    800ba9 <vprintfmt+0x2c>
  800e49:	89 45 d0             	mov    %eax,-0x30(%ebp)
// Same as getuint but signed - can't use getuint
// because of sign extension
static long long
getint(va_list *ap, int lflag)
{
	if (lflag >= 2)
  800e4c:	83 f9 01             	cmp    $0x1,%ecx
  800e4f:	7e 16                	jle    800e67 <vprintfmt+0x2ea>
		return va_arg(*ap, long long);
  800e51:	8b 45 14             	mov    0x14(%ebp),%eax
  800e54:	8d 50 08             	lea    0x8(%eax),%edx
  800e57:	89 55 14             	mov    %edx,0x14(%ebp)
  800e5a:	8b 10                	mov    (%eax),%edx
  800e5c:	8b 48 04             	mov    0x4(%eax),%ecx
  800e5f:	89 55 d8             	mov    %edx,-0x28(%ebp)
  800e62:	89 4d dc             	mov    %ecx,-0x24(%ebp)
  800e65:	eb 32                	jmp    800e99 <vprintfmt+0x31c>
	else if (lflag)
  800e67:	85 c9                	test   %ecx,%ecx
  800e69:	74 18                	je     800e83 <vprintfmt+0x306>
		return va_arg(*ap, long);
  800e6b:	8b 45 14             	mov    0x14(%ebp),%eax
  800e6e:	8d 50 04             	lea    0x4(%eax),%edx
  800e71:	89 55 14             	mov    %edx,0x14(%ebp)
  800e74:	8b 00                	mov    (%eax),%eax
  800e76:	89 45 d8             	mov    %eax,-0x28(%ebp)
  800e79:	89 c1                	mov    %eax,%ecx
  800e7b:	c1 f9 1f             	sar    $0x1f,%ecx
  800e7e:	89 4d dc             	mov    %ecx,-0x24(%ebp)
  800e81:	eb 16                	jmp    800e99 <vprintfmt+0x31c>
	else
		return va_arg(*ap, int);
  800e83:	8b 45 14             	mov    0x14(%ebp),%eax
  800e86:	8d 50 04             	lea    0x4(%eax),%edx
  800e89:	89 55 14             	mov    %edx,0x14(%ebp)
  800e8c:	8b 00                	mov    (%eax),%eax
  800e8e:	89 45 d8             	mov    %eax,-0x28(%ebp)
  800e91:	89 c2                	mov    %eax,%edx
  800e93:	c1 fa 1f             	sar    $0x1f,%edx
  800e96:	89 55 dc             	mov    %edx,-0x24(%ebp)
				putch(' ', putdat);
			break;

		// (signed) decimal
		case 'd':
			num = getint(&ap, lflag);
  800e99:	8b 45 d8             	mov    -0x28(%ebp),%eax
  800e9c:	8b 55 dc             	mov    -0x24(%ebp),%edx
  800e9f:	bb 0a 00 00 00       	mov    $0xa,%ebx
			if ((long long) num < 0) {
  800ea4:	83 7d dc 00          	cmpl   $0x0,-0x24(%ebp)
  800ea8:	0f 89 8a 00 00 00    	jns    800f38 <vprintfmt+0x3bb>
				putch('-', putdat);
  800eae:	89 74 24 04          	mov    %esi,0x4(%esp)
  800eb2:	c7 04 24 2d 00 00 00 	movl   $0x2d,(%esp)
  800eb9:	ff d7                	call   *%edi
				num = -(long long) num;
  800ebb:	8b 45 d8             	mov    -0x28(%ebp),%eax
  800ebe:	8b 55 dc             	mov    -0x24(%ebp),%edx
  800ec1:	f7 d8                	neg    %eax
  800ec3:	83 d2 00             	adc    $0x0,%edx
  800ec6:	f7 da                	neg    %edx
  800ec8:	eb 6e                	jmp    800f38 <vprintfmt+0x3bb>
  800eca:	89 45 d0             	mov    %eax,-0x30(%ebp)
			base = 10;
			goto number;

		// unsigned decimal
		case 'u':
			num = getuint(&ap, lflag);
  800ecd:	89 ca                	mov    %ecx,%edx
  800ecf:	8d 45 14             	lea    0x14(%ebp),%eax
  800ed2:	e8 4f fc ff ff       	call   800b26 <getuint>
  800ed7:	bb 0a 00 00 00       	mov    $0xa,%ebx
			base = 10;
			goto number;
  800edc:	eb 5a                	jmp    800f38 <vprintfmt+0x3bb>
  800ede:	89 45 d0             	mov    %eax,-0x30(%ebp)
		case 'o':
			// Replace this with your code.
			// putch('X', putdat);
			// putch('X', putdat);
			// putch('X', putdat);
			num = getuint(&ap, lflag);
  800ee1:	89 ca                	mov    %ecx,%edx
  800ee3:	8d 45 14             	lea    0x14(%ebp),%eax
  800ee6:	e8 3b fc ff ff       	call   800b26 <getuint>
  800eeb:	bb 08 00 00 00       	mov    $0x8,%ebx
			base = 8;
			goto number;
  800ef0:	eb 46                	jmp    800f38 <vprintfmt+0x3bb>
  800ef2:	89 45 d0             	mov    %eax,-0x30(%ebp)
			

		// pointer
		case 'p':
			putch('0', putdat);
  800ef5:	89 74 24 04          	mov    %esi,0x4(%esp)
  800ef9:	c7 04 24 30 00 00 00 	movl   $0x30,(%esp)
  800f00:	ff d7                	call   *%edi
			putch('x', putdat);
  800f02:	89 74 24 04          	mov    %esi,0x4(%esp)
  800f06:	c7 04 24 78 00 00 00 	movl   $0x78,(%esp)
  800f0d:	ff d7                	call   *%edi
			num = (unsigned long long)
  800f0f:	8b 45 14             	mov    0x14(%ebp),%eax
  800f12:	8d 50 04             	lea    0x4(%eax),%edx
  800f15:	89 55 14             	mov    %edx,0x14(%ebp)
  800f18:	8b 00                	mov    (%eax),%eax
  800f1a:	ba 00 00 00 00       	mov    $0x0,%edx
  800f1f:	bb 10 00 00 00       	mov    $0x10,%ebx
				(uintptr_t) va_arg(ap, void *);
			base = 16;
			goto number;
  800f24:	eb 12                	jmp    800f38 <vprintfmt+0x3bb>
  800f26:	89 45 d0             	mov    %eax,-0x30(%ebp)

		// (unsigned) hexadecimal
		case 'x':
			num = getuint(&ap, lflag);
  800f29:	89 ca                	mov    %ecx,%edx
  800f2b:	8d 45 14             	lea    0x14(%ebp),%eax
  800f2e:	e8 f3 fb ff ff       	call   800b26 <getuint>
  800f33:	bb 10 00 00 00       	mov    $0x10,%ebx
			base = 16;
		number:
			printnum(putch, putdat, num, base, width, padc);
  800f38:	0f be 4d e0          	movsbl -0x20(%ebp),%ecx
  800f3c:	89 4c 24 10          	mov    %ecx,0x10(%esp)
  800f40:	8b 4d d4             	mov    -0x2c(%ebp),%ecx
  800f43:	89 4c 24 0c          	mov    %ecx,0xc(%esp)
  800f47:	89 5c 24 08          	mov    %ebx,0x8(%esp)
  800f4b:	89 04 24             	mov    %eax,(%esp)
  800f4e:	89 54 24 04          	mov    %edx,0x4(%esp)
  800f52:	89 f2                	mov    %esi,%edx
  800f54:	89 f8                	mov    %edi,%eax
  800f56:	e8 d5 fa ff ff       	call   800a30 <printnum>
  800f5b:	8b 5d d0             	mov    -0x30(%ebp),%ebx
			break;
  800f5e:	e9 46 fc ff ff       	jmp    800ba9 <vprintfmt+0x2c>
  800f63:	89 45 d0             	mov    %eax,-0x30(%ebp)

            const char *null_error = "\nerror! writing through NULL pointer! (%n argument)\n";
            const char *overflow_error = "\nwarning! The value %n argument pointed to has been overflowed!\n";

            // Your code here
		if ((p = va_arg(ap, void *)) == NULL)
  800f66:	8b 45 14             	mov    0x14(%ebp),%eax
  800f69:	8d 50 04             	lea    0x4(%eax),%edx
  800f6c:	89 55 14             	mov    %edx,0x14(%ebp)
  800f6f:	8b 00                	mov    (%eax),%eax
  800f71:	85 c0                	test   %eax,%eax
  800f73:	75 24                	jne    800f99 <vprintfmt+0x41c>
		{		
			printfmt(putch, putdat, "%s", null_error);
  800f75:	c7 44 24 0c 0c 23 81 	movl   $0x81230c,0xc(%esp)
  800f7c:	00 
  800f7d:	c7 44 24 08 b3 28 81 	movl   $0x8128b3,0x8(%esp)
  800f84:	00 
  800f85:	89 74 24 04          	mov    %esi,0x4(%esp)
  800f89:	89 3c 24             	mov    %edi,(%esp)
  800f8c:	e8 ff 00 00 00       	call   801090 <printfmt>
  800f91:	8b 5d d0             	mov    -0x30(%ebp),%ebx
			break;
  800f94:	e9 10 fc ff ff       	jmp    800ba9 <vprintfmt+0x2c>
		}		
		if( (*(int *)putdat) > 127)
  800f99:	83 3e 7f             	cmpl   $0x7f,(%esi)
  800f9c:	7e 29                	jle    800fc7 <vprintfmt+0x44a>
		{
			(*((unsigned char *)p)) = (*((unsigned char *)putdat));
  800f9e:	0f b6 16             	movzbl (%esi),%edx
  800fa1:	88 10                	mov    %dl,(%eax)
			printfmt(putch, putdat, "%s", overflow_error);			
  800fa3:	c7 44 24 0c 44 23 81 	movl   $0x812344,0xc(%esp)
  800faa:	00 
  800fab:	c7 44 24 08 b3 28 81 	movl   $0x8128b3,0x8(%esp)
  800fb2:	00 
  800fb3:	89 74 24 04          	mov    %esi,0x4(%esp)
  800fb7:	89 3c 24             	mov    %edi,(%esp)
  800fba:	e8 d1 00 00 00       	call   801090 <printfmt>
  800fbf:	8b 5d d0             	mov    -0x30(%ebp),%ebx
			break;
  800fc2:	e9 e2 fb ff ff       	jmp    800ba9 <vprintfmt+0x2c>
		}

		(*((char *)p)) = (*((char *)putdat));		
  800fc7:	0f b6 16             	movzbl (%esi),%edx
  800fca:	88 10                	mov    %dl,(%eax)
  800fcc:	8b 5d d0             	mov    -0x30(%ebp),%ebx

            break;
  800fcf:	e9 d5 fb ff ff       	jmp    800ba9 <vprintfmt+0x2c>
  800fd4:	89 45 d0             	mov    %eax,-0x30(%ebp)
  800fd7:	8b 55 e4             	mov    -0x1c(%ebp),%edx
        }

		// escaped '%' character
		case '%':
			putch(ch, putdat);
  800fda:	89 74 24 04          	mov    %esi,0x4(%esp)
  800fde:	89 14 24             	mov    %edx,(%esp)
  800fe1:	ff d7                	call   *%edi
  800fe3:	8b 5d d0             	mov    -0x30(%ebp),%ebx
			break;
  800fe6:	e9 be fb ff ff       	jmp    800ba9 <vprintfmt+0x2c>
			
		// unrecognized escape sequence - just print it literally
		default:
			putch('%', putdat);
  800feb:	89 74 24 04          	mov    %esi,0x4(%esp)
  800fef:	c7 04 24 25 00 00 00 	movl   $0x25,(%esp)
  800ff6:	ff d7                	call   *%edi
			for (fmt--; fmt[-1] != '%'; fmt--)
  800ff8:	8d 43 ff             	lea    -0x1(%ebx),%eax
  800ffb:	80 38 25             	cmpb   $0x25,(%eax)
  800ffe:	0f 84 a5 fb ff ff    	je     800ba9 <vprintfmt+0x2c>
  801004:	89 c3                	mov    %eax,%ebx
  801006:	eb f0                	jmp    800ff8 <vprintfmt+0x47b>
				/* do nothing */;
			break;
		}
	}
}
  801008:	83 c4 5c             	add    $0x5c,%esp
  80100b:	5b                   	pop    %ebx
  80100c:	5e                   	pop    %esi
  80100d:	5f                   	pop    %edi
  80100e:	5d                   	pop    %ebp
  80100f:	c3                   	ret    

00801010 <vsnprintf>:
		*b->buf++ = ch;
}

int
vsnprintf(char *buf, int n, const char *fmt, va_list ap)
{
  801010:	55                   	push   %ebp
  801011:	89 e5                	mov    %esp,%ebp
  801013:	83 ec 28             	sub    $0x28,%esp
  801016:	8b 45 08             	mov    0x8(%ebp),%eax
  801019:	8b 55 0c             	mov    0xc(%ebp),%edx
	struct sprintbuf b = {buf, buf+n-1, 0};

	if (buf == NULL || n < 1)
  80101c:	85 c0                	test   %eax,%eax
  80101e:	74 04                	je     801024 <vsnprintf+0x14>
  801020:	85 d2                	test   %edx,%edx
  801022:	7f 07                	jg     80102b <vsnprintf+0x1b>
  801024:	b8 fd ff ff ff       	mov    $0xfffffffd,%eax
  801029:	eb 3b                	jmp    801066 <vsnprintf+0x56>
}

int
vsnprintf(char *buf, int n, const char *fmt, va_list ap)
{
	struct sprintbuf b = {buf, buf+n-1, 0};
  80102b:	89 45 ec             	mov    %eax,-0x14(%ebp)
  80102e:	8d 44 10 ff          	lea    -0x1(%eax,%edx,1),%eax
  801032:	89 45 f0             	mov    %eax,-0x10(%ebp)
  801035:	c7 45 f4 00 00 00 00 	movl   $0x0,-0xc(%ebp)

	if (buf == NULL || n < 1)
		return -E_INVAL;

	// print the string to the buffer
	vprintfmt((void*)sprintputch, &b, fmt, ap);
  80103c:	8b 45 14             	mov    0x14(%ebp),%eax
  80103f:	89 44 24 0c          	mov    %eax,0xc(%esp)
  801043:	8b 45 10             	mov    0x10(%ebp),%eax
  801046:	89 44 24 08          	mov    %eax,0x8(%esp)
  80104a:	8d 45 ec             	lea    -0x14(%ebp),%eax
  80104d:	89 44 24 04          	mov    %eax,0x4(%esp)
  801051:	c7 04 24 60 0b 80 00 	movl   $0x800b60,(%esp)
  801058:	e8 20 fb ff ff       	call   800b7d <vprintfmt>

	// null terminate the buffer
	*b.buf = '\0';
  80105d:	8b 45 ec             	mov    -0x14(%ebp),%eax
  801060:	c6 00 00             	movb   $0x0,(%eax)

	return b.cnt;
  801063:	8b 45 f4             	mov    -0xc(%ebp),%eax
}
  801066:	c9                   	leave  
  801067:	c3                   	ret    

00801068 <snprintf>:

int
snprintf(char *buf, int n, const char *fmt, ...)
{
  801068:	55                   	push   %ebp
  801069:	89 e5                	mov    %esp,%ebp
  80106b:	83 ec 18             	sub    $0x18,%esp

	return b.cnt;
}

int
snprintf(char *buf, int n, const char *fmt, ...)
  80106e:	8d 45 14             	lea    0x14(%ebp),%eax
{
	va_list ap;
	int rc;

	va_start(ap, fmt);
	rc = vsnprintf(buf, n, fmt, ap);
  801071:	89 44 24 0c          	mov    %eax,0xc(%esp)
  801075:	8b 45 10             	mov    0x10(%ebp),%eax
  801078:	89 44 24 08          	mov    %eax,0x8(%esp)
  80107c:	8b 45 0c             	mov    0xc(%ebp),%eax
  80107f:	89 44 24 04          	mov    %eax,0x4(%esp)
  801083:	8b 45 08             	mov    0x8(%ebp),%eax
  801086:	89 04 24             	mov    %eax,(%esp)
  801089:	e8 82 ff ff ff       	call   801010 <vsnprintf>
	va_end(ap);

	return rc;
}
  80108e:	c9                   	leave  
  80108f:	c3                   	ret    

00801090 <printfmt>:
	}
}

void
printfmt(void (*putch)(int, void*), void *putdat, const char *fmt, ...)
{
  801090:	55                   	push   %ebp
  801091:	89 e5                	mov    %esp,%ebp
  801093:	83 ec 18             	sub    $0x18,%esp
		}
	}
}

void
printfmt(void (*putch)(int, void*), void *putdat, const char *fmt, ...)
  801096:	8d 45 14             	lea    0x14(%ebp),%eax
{
	va_list ap;

	va_start(ap, fmt);
	vprintfmt(putch, putdat, fmt, ap);
  801099:	89 44 24 0c          	mov    %eax,0xc(%esp)
  80109d:	8b 45 10             	mov    0x10(%ebp),%eax
  8010a0:	89 44 24 08          	mov    %eax,0x8(%esp)
  8010a4:	8b 45 0c             	mov    0xc(%ebp),%eax
  8010a7:	89 44 24 04          	mov    %eax,0x4(%esp)
  8010ab:	8b 45 08             	mov    0x8(%ebp),%eax
  8010ae:	89 04 24             	mov    %eax,(%esp)
  8010b1:	e8 c7 fa ff ff       	call   800b7d <vprintfmt>
	va_end(ap);
}
  8010b6:	c9                   	leave  
  8010b7:	c3                   	ret    
	...

008010c0 <strlen>:
// Primespipe runs 3x faster this way.
#define ASM 1

int
strlen(const char *s)
{
  8010c0:	55                   	push   %ebp
  8010c1:	89 e5                	mov    %esp,%ebp
  8010c3:	8b 55 08             	mov    0x8(%ebp),%edx
	int n;

	for (n = 0; *s != '\0'; s++)
  8010c6:	b8 00 00 00 00       	mov    $0x0,%eax
  8010cb:	80 3a 00             	cmpb   $0x0,(%edx)
  8010ce:	74 09                	je     8010d9 <strlen+0x19>
		n++;
  8010d0:	83 c0 01             	add    $0x1,%eax
int
strlen(const char *s)
{
	int n;

	for (n = 0; *s != '\0'; s++)
  8010d3:	80 3c 02 00          	cmpb   $0x0,(%edx,%eax,1)
  8010d7:	75 f7                	jne    8010d0 <strlen+0x10>
		n++;
	return n;
}
  8010d9:	5d                   	pop    %ebp
  8010da:	c3                   	ret    

008010db <strnlen>:

int
strnlen(const char *s, size_t size)
{
  8010db:	55                   	push   %ebp
  8010dc:	89 e5                	mov    %esp,%ebp
  8010de:	53                   	push   %ebx
  8010df:	8b 5d 08             	mov    0x8(%ebp),%ebx
  8010e2:	8b 4d 0c             	mov    0xc(%ebp),%ecx
	int n;

	for (n = 0; size > 0 && *s != '\0'; s++, size--)
  8010e5:	85 c9                	test   %ecx,%ecx
  8010e7:	74 19                	je     801102 <strnlen+0x27>
  8010e9:	80 3b 00             	cmpb   $0x0,(%ebx)
  8010ec:	74 14                	je     801102 <strnlen+0x27>
  8010ee:	b8 00 00 00 00       	mov    $0x0,%eax
		n++;
  8010f3:	83 c0 01             	add    $0x1,%eax
int
strnlen(const char *s, size_t size)
{
	int n;

	for (n = 0; size > 0 && *s != '\0'; s++, size--)
  8010f6:	39 c8                	cmp    %ecx,%eax
  8010f8:	74 0d                	je     801107 <strnlen+0x2c>
  8010fa:	80 3c 03 00          	cmpb   $0x0,(%ebx,%eax,1)
  8010fe:	75 f3                	jne    8010f3 <strnlen+0x18>
  801100:	eb 05                	jmp    801107 <strnlen+0x2c>
  801102:	b8 00 00 00 00       	mov    $0x0,%eax
		n++;
	return n;
}
  801107:	5b                   	pop    %ebx
  801108:	5d                   	pop    %ebp
  801109:	c3                   	ret    

0080110a <strcpy>:

char *
strcpy(char *dst, const char *src)
{
  80110a:	55                   	push   %ebp
  80110b:	89 e5                	mov    %esp,%ebp
  80110d:	53                   	push   %ebx
  80110e:	8b 45 08             	mov    0x8(%ebp),%eax
  801111:	8b 5d 0c             	mov    0xc(%ebp),%ebx
  801114:	ba 00 00 00 00       	mov    $0x0,%edx
	char *ret;

	ret = dst;
	while ((*dst++ = *src++) != '\0')
  801119:	0f b6 0c 13          	movzbl (%ebx,%edx,1),%ecx
  80111d:	88 0c 10             	mov    %cl,(%eax,%edx,1)
  801120:	83 c2 01             	add    $0x1,%edx
  801123:	84 c9                	test   %cl,%cl
  801125:	75 f2                	jne    801119 <strcpy+0xf>
		/* do nothing */;
	return ret;
}
  801127:	5b                   	pop    %ebx
  801128:	5d                   	pop    %ebp
  801129:	c3                   	ret    

0080112a <strcat>:

char *
strcat(char *dst, const char *src)
{
  80112a:	55                   	push   %ebp
  80112b:	89 e5                	mov    %esp,%ebp
  80112d:	53                   	push   %ebx
  80112e:	83 ec 08             	sub    $0x8,%esp
  801131:	8b 5d 08             	mov    0x8(%ebp),%ebx
	int len = strlen(dst);
  801134:	89 1c 24             	mov    %ebx,(%esp)
  801137:	e8 84 ff ff ff       	call   8010c0 <strlen>
	strcpy(dst + len, src);
  80113c:	8b 55 0c             	mov    0xc(%ebp),%edx
  80113f:	89 54 24 04          	mov    %edx,0x4(%esp)
  801143:	8d 04 03             	lea    (%ebx,%eax,1),%eax
  801146:	89 04 24             	mov    %eax,(%esp)
  801149:	e8 bc ff ff ff       	call   80110a <strcpy>
	return dst;
}
  80114e:	89 d8                	mov    %ebx,%eax
  801150:	83 c4 08             	add    $0x8,%esp
  801153:	5b                   	pop    %ebx
  801154:	5d                   	pop    %ebp
  801155:	c3                   	ret    

00801156 <strncpy>:

char *
strncpy(char *dst, const char *src, size_t size) {
  801156:	55                   	push   %ebp
  801157:	89 e5                	mov    %esp,%ebp
  801159:	56                   	push   %esi
  80115a:	53                   	push   %ebx
  80115b:	8b 45 08             	mov    0x8(%ebp),%eax
  80115e:	8b 55 0c             	mov    0xc(%ebp),%edx
  801161:	8b 75 10             	mov    0x10(%ebp),%esi
	size_t i;
	char *ret;

	ret = dst;
	for (i = 0; i < size; i++) {
  801164:	85 f6                	test   %esi,%esi
  801166:	74 18                	je     801180 <strncpy+0x2a>
  801168:	b9 00 00 00 00       	mov    $0x0,%ecx
		*dst++ = *src;
  80116d:	0f b6 1a             	movzbl (%edx),%ebx
  801170:	88 1c 08             	mov    %bl,(%eax,%ecx,1)
		// If strlen(src) < size, null-pad 'dst' out to 'size' chars
		if (*src != '\0')
			src++;
  801173:	80 3a 01             	cmpb   $0x1,(%edx)
  801176:	83 da ff             	sbb    $0xffffffff,%edx
strncpy(char *dst, const char *src, size_t size) {
	size_t i;
	char *ret;

	ret = dst;
	for (i = 0; i < size; i++) {
  801179:	83 c1 01             	add    $0x1,%ecx
  80117c:	39 ce                	cmp    %ecx,%esi
  80117e:	77 ed                	ja     80116d <strncpy+0x17>
		// If strlen(src) < size, null-pad 'dst' out to 'size' chars
		if (*src != '\0')
			src++;
	}
	return ret;
}
  801180:	5b                   	pop    %ebx
  801181:	5e                   	pop    %esi
  801182:	5d                   	pop    %ebp
  801183:	c3                   	ret    

00801184 <strlcpy>:

size_t
strlcpy(char *dst, const char *src, size_t size)
{
  801184:	55                   	push   %ebp
  801185:	89 e5                	mov    %esp,%ebp
  801187:	56                   	push   %esi
  801188:	53                   	push   %ebx
  801189:	8b 75 08             	mov    0x8(%ebp),%esi
  80118c:	8b 55 0c             	mov    0xc(%ebp),%edx
  80118f:	8b 4d 10             	mov    0x10(%ebp),%ecx
	char *dst_in;

	dst_in = dst;
	if (size > 0) {
  801192:	89 f0                	mov    %esi,%eax
  801194:	85 c9                	test   %ecx,%ecx
  801196:	74 27                	je     8011bf <strlcpy+0x3b>
		while (--size > 0 && *src != '\0')
  801198:	83 e9 01             	sub    $0x1,%ecx
  80119b:	74 1d                	je     8011ba <strlcpy+0x36>
  80119d:	0f b6 1a             	movzbl (%edx),%ebx
  8011a0:	84 db                	test   %bl,%bl
  8011a2:	74 16                	je     8011ba <strlcpy+0x36>
			*dst++ = *src++;
  8011a4:	88 18                	mov    %bl,(%eax)
  8011a6:	83 c0 01             	add    $0x1,%eax
{
	char *dst_in;

	dst_in = dst;
	if (size > 0) {
		while (--size > 0 && *src != '\0')
  8011a9:	83 e9 01             	sub    $0x1,%ecx
  8011ac:	74 0e                	je     8011bc <strlcpy+0x38>
			*dst++ = *src++;
  8011ae:	83 c2 01             	add    $0x1,%edx
{
	char *dst_in;

	dst_in = dst;
	if (size > 0) {
		while (--size > 0 && *src != '\0')
  8011b1:	0f b6 1a             	movzbl (%edx),%ebx
  8011b4:	84 db                	test   %bl,%bl
  8011b6:	75 ec                	jne    8011a4 <strlcpy+0x20>
  8011b8:	eb 02                	jmp    8011bc <strlcpy+0x38>
  8011ba:	89 f0                	mov    %esi,%eax
			*dst++ = *src++;
		*dst = '\0';
  8011bc:	c6 00 00             	movb   $0x0,(%eax)
  8011bf:	29 f0                	sub    %esi,%eax
	}
	return dst - dst_in;
}
  8011c1:	5b                   	pop    %ebx
  8011c2:	5e                   	pop    %esi
  8011c3:	5d                   	pop    %ebp
  8011c4:	c3                   	ret    

008011c5 <strcmp>:

int
strcmp(const char *p, const char *q)
{
  8011c5:	55                   	push   %ebp
  8011c6:	89 e5                	mov    %esp,%ebp
  8011c8:	8b 4d 08             	mov    0x8(%ebp),%ecx
  8011cb:	8b 55 0c             	mov    0xc(%ebp),%edx
	while (*p && *p == *q)
  8011ce:	0f b6 01             	movzbl (%ecx),%eax
  8011d1:	84 c0                	test   %al,%al
  8011d3:	74 15                	je     8011ea <strcmp+0x25>
  8011d5:	3a 02                	cmp    (%edx),%al
  8011d7:	75 11                	jne    8011ea <strcmp+0x25>
		p++, q++;
  8011d9:	83 c1 01             	add    $0x1,%ecx
  8011dc:	83 c2 01             	add    $0x1,%edx
}

int
strcmp(const char *p, const char *q)
{
	while (*p && *p == *q)
  8011df:	0f b6 01             	movzbl (%ecx),%eax
  8011e2:	84 c0                	test   %al,%al
  8011e4:	74 04                	je     8011ea <strcmp+0x25>
  8011e6:	3a 02                	cmp    (%edx),%al
  8011e8:	74 ef                	je     8011d9 <strcmp+0x14>
  8011ea:	0f b6 c0             	movzbl %al,%eax
  8011ed:	0f b6 12             	movzbl (%edx),%edx
  8011f0:	29 d0                	sub    %edx,%eax
		p++, q++;
	return (int) ((unsigned char) *p - (unsigned char) *q);
}
  8011f2:	5d                   	pop    %ebp
  8011f3:	c3                   	ret    

008011f4 <strncmp>:

int
strncmp(const char *p, const char *q, size_t n)
{
  8011f4:	55                   	push   %ebp
  8011f5:	89 e5                	mov    %esp,%ebp
  8011f7:	53                   	push   %ebx
  8011f8:	8b 55 08             	mov    0x8(%ebp),%edx
  8011fb:	8b 4d 0c             	mov    0xc(%ebp),%ecx
  8011fe:	8b 45 10             	mov    0x10(%ebp),%eax
	while (n > 0 && *p && *p == *q)
  801201:	85 c0                	test   %eax,%eax
  801203:	74 23                	je     801228 <strncmp+0x34>
  801205:	0f b6 1a             	movzbl (%edx),%ebx
  801208:	84 db                	test   %bl,%bl
  80120a:	74 25                	je     801231 <strncmp+0x3d>
  80120c:	3a 19                	cmp    (%ecx),%bl
  80120e:	75 21                	jne    801231 <strncmp+0x3d>
  801210:	83 e8 01             	sub    $0x1,%eax
  801213:	74 13                	je     801228 <strncmp+0x34>
		n--, p++, q++;
  801215:	83 c2 01             	add    $0x1,%edx
  801218:	83 c1 01             	add    $0x1,%ecx
}

int
strncmp(const char *p, const char *q, size_t n)
{
	while (n > 0 && *p && *p == *q)
  80121b:	0f b6 1a             	movzbl (%edx),%ebx
  80121e:	84 db                	test   %bl,%bl
  801220:	74 0f                	je     801231 <strncmp+0x3d>
  801222:	3a 19                	cmp    (%ecx),%bl
  801224:	74 ea                	je     801210 <strncmp+0x1c>
  801226:	eb 09                	jmp    801231 <strncmp+0x3d>
  801228:	b8 00 00 00 00       	mov    $0x0,%eax
		n--, p++, q++;
	if (n == 0)
		return 0;
	else
		return (int) ((unsigned char) *p - (unsigned char) *q);
}
  80122d:	5b                   	pop    %ebx
  80122e:	5d                   	pop    %ebp
  80122f:	90                   	nop
  801230:	c3                   	ret    
	while (n > 0 && *p && *p == *q)
		n--, p++, q++;
	if (n == 0)
		return 0;
	else
		return (int) ((unsigned char) *p - (unsigned char) *q);
  801231:	0f b6 02             	movzbl (%edx),%eax
  801234:	0f b6 11             	movzbl (%ecx),%edx
  801237:	29 d0                	sub    %edx,%eax
  801239:	eb f2                	jmp    80122d <strncmp+0x39>

0080123b <strchr>:

// Return a pointer to the first occurrence of 'c' in 's',
// or a null pointer if the string has no 'c'.
char *
strchr(const char *s, char c)
{
  80123b:	55                   	push   %ebp
  80123c:	89 e5                	mov    %esp,%ebp
  80123e:	8b 45 08             	mov    0x8(%ebp),%eax
  801241:	0f b6 4d 0c          	movzbl 0xc(%ebp),%ecx
	for (; *s; s++)
  801245:	0f b6 10             	movzbl (%eax),%edx
  801248:	84 d2                	test   %dl,%dl
  80124a:	74 18                	je     801264 <strchr+0x29>
		if (*s == c)
  80124c:	38 ca                	cmp    %cl,%dl
  80124e:	75 0a                	jne    80125a <strchr+0x1f>
  801250:	eb 17                	jmp    801269 <strchr+0x2e>
  801252:	38 ca                	cmp    %cl,%dl
  801254:	8d 74 26 00          	lea    0x0(%esi,%eiz,1),%esi
  801258:	74 0f                	je     801269 <strchr+0x2e>
// Return a pointer to the first occurrence of 'c' in 's',
// or a null pointer if the string has no 'c'.
char *
strchr(const char *s, char c)
{
	for (; *s; s++)
  80125a:	83 c0 01             	add    $0x1,%eax
  80125d:	0f b6 10             	movzbl (%eax),%edx
  801260:	84 d2                	test   %dl,%dl
  801262:	75 ee                	jne    801252 <strchr+0x17>
  801264:	b8 00 00 00 00       	mov    $0x0,%eax
		if (*s == c)
			return (char *) s;
	return 0;
}
  801269:	5d                   	pop    %ebp
  80126a:	c3                   	ret    

0080126b <strfind>:

// Return a pointer to the first occurrence of 'c' in 's',
// or a pointer to the string-ending null character if the string has no 'c'.
char *
strfind(const char *s, char c)
{
  80126b:	55                   	push   %ebp
  80126c:	89 e5                	mov    %esp,%ebp
  80126e:	8b 45 08             	mov    0x8(%ebp),%eax
  801271:	0f b6 4d 0c          	movzbl 0xc(%ebp),%ecx
	for (; *s; s++)
  801275:	0f b6 10             	movzbl (%eax),%edx
  801278:	84 d2                	test   %dl,%dl
  80127a:	74 18                	je     801294 <strfind+0x29>
		if (*s == c)
  80127c:	38 ca                	cmp    %cl,%dl
  80127e:	75 0a                	jne    80128a <strfind+0x1f>
  801280:	eb 12                	jmp    801294 <strfind+0x29>
  801282:	38 ca                	cmp    %cl,%dl
  801284:	8d 74 26 00          	lea    0x0(%esi,%eiz,1),%esi
  801288:	74 0a                	je     801294 <strfind+0x29>
// Return a pointer to the first occurrence of 'c' in 's',
// or a pointer to the string-ending null character if the string has no 'c'.
char *
strfind(const char *s, char c)
{
	for (; *s; s++)
  80128a:	83 c0 01             	add    $0x1,%eax
  80128d:	0f b6 10             	movzbl (%eax),%edx
  801290:	84 d2                	test   %dl,%dl
  801292:	75 ee                	jne    801282 <strfind+0x17>
		if (*s == c)
			break;
	return (char *) s;
}
  801294:	5d                   	pop    %ebp
  801295:	c3                   	ret    

00801296 <memset>:

#if ASM
void *
memset(void *v, int c, size_t n)
{
  801296:	55                   	push   %ebp
  801297:	89 e5                	mov    %esp,%ebp
  801299:	83 ec 0c             	sub    $0xc,%esp
  80129c:	89 1c 24             	mov    %ebx,(%esp)
  80129f:	89 74 24 04          	mov    %esi,0x4(%esp)
  8012a3:	89 7c 24 08          	mov    %edi,0x8(%esp)
  8012a7:	8b 7d 08             	mov    0x8(%ebp),%edi
  8012aa:	8b 45 0c             	mov    0xc(%ebp),%eax
  8012ad:	8b 4d 10             	mov    0x10(%ebp),%ecx
	char *p;

	if (n == 0)
  8012b0:	85 c9                	test   %ecx,%ecx
  8012b2:	74 30                	je     8012e4 <memset+0x4e>
		return v;
	if ((int)v%4 == 0 && n%4 == 0) {
  8012b4:	f7 c7 03 00 00 00    	test   $0x3,%edi
  8012ba:	75 25                	jne    8012e1 <memset+0x4b>
  8012bc:	f6 c1 03             	test   $0x3,%cl
  8012bf:	75 20                	jne    8012e1 <memset+0x4b>
		c &= 0xFF;
  8012c1:	0f b6 d0             	movzbl %al,%edx
		c = (c<<24)|(c<<16)|(c<<8)|c;
  8012c4:	89 d3                	mov    %edx,%ebx
  8012c6:	c1 e3 08             	shl    $0x8,%ebx
  8012c9:	89 d6                	mov    %edx,%esi
  8012cb:	c1 e6 18             	shl    $0x18,%esi
  8012ce:	89 d0                	mov    %edx,%eax
  8012d0:	c1 e0 10             	shl    $0x10,%eax
  8012d3:	09 f0                	or     %esi,%eax
  8012d5:	09 d0                	or     %edx,%eax
		asm volatile("cld; rep stosl\n"
  8012d7:	09 d8                	or     %ebx,%eax
  8012d9:	c1 e9 02             	shr    $0x2,%ecx
  8012dc:	fc                   	cld    
  8012dd:	f3 ab                	rep stos %eax,%es:(%edi)
{
	char *p;

	if (n == 0)
		return v;
	if ((int)v%4 == 0 && n%4 == 0) {
  8012df:	eb 03                	jmp    8012e4 <memset+0x4e>
		c = (c<<24)|(c<<16)|(c<<8)|c;
		asm volatile("cld; rep stosl\n"
			:: "D" (v), "a" (c), "c" (n/4)
			: "cc", "memory");
	} else
		asm volatile("cld; rep stosb\n"
  8012e1:	fc                   	cld    
  8012e2:	f3 aa                	rep stos %al,%es:(%edi)
			:: "D" (v), "a" (c), "c" (n)
			: "cc", "memory");
	return v;
}
  8012e4:	89 f8                	mov    %edi,%eax
  8012e6:	8b 1c 24             	mov    (%esp),%ebx
  8012e9:	8b 74 24 04          	mov    0x4(%esp),%esi
  8012ed:	8b 7c 24 08          	mov    0x8(%esp),%edi
  8012f1:	89 ec                	mov    %ebp,%esp
  8012f3:	5d                   	pop    %ebp
  8012f4:	c3                   	ret    

008012f5 <memmove>:

void *
memmove(void *dst, const void *src, size_t n)
{
  8012f5:	55                   	push   %ebp
  8012f6:	89 e5                	mov    %esp,%ebp
  8012f8:	83 ec 08             	sub    $0x8,%esp
  8012fb:	89 34 24             	mov    %esi,(%esp)
  8012fe:	89 7c 24 04          	mov    %edi,0x4(%esp)
  801302:	8b 45 08             	mov    0x8(%ebp),%eax
  801305:	8b 4d 10             	mov    0x10(%ebp),%ecx
	const char *s;
	char *d;
	
	s = src;
  801308:	8b 75 0c             	mov    0xc(%ebp),%esi
	d = dst;
  80130b:	89 c7                	mov    %eax,%edi
	if (s < d && s + n > d) {
  80130d:	39 c6                	cmp    %eax,%esi
  80130f:	73 35                	jae    801346 <memmove+0x51>
  801311:	8d 14 0e             	lea    (%esi,%ecx,1),%edx
  801314:	39 d0                	cmp    %edx,%eax
  801316:	73 2e                	jae    801346 <memmove+0x51>
		s += n;
		d += n;
  801318:	01 cf                	add    %ecx,%edi
		if ((int)s%4 == 0 && (int)d%4 == 0 && n%4 == 0)
  80131a:	f6 c2 03             	test   $0x3,%dl
  80131d:	75 1b                	jne    80133a <memmove+0x45>
  80131f:	f7 c7 03 00 00 00    	test   $0x3,%edi
  801325:	75 13                	jne    80133a <memmove+0x45>
  801327:	f6 c1 03             	test   $0x3,%cl
  80132a:	75 0e                	jne    80133a <memmove+0x45>
			asm volatile("std; rep movsl\n"
  80132c:	83 ef 04             	sub    $0x4,%edi
  80132f:	8d 72 fc             	lea    -0x4(%edx),%esi
  801332:	c1 e9 02             	shr    $0x2,%ecx
  801335:	fd                   	std    
  801336:	f3 a5                	rep movsl %ds:(%esi),%es:(%edi)
	s = src;
	d = dst;
	if (s < d && s + n > d) {
		s += n;
		d += n;
		if ((int)s%4 == 0 && (int)d%4 == 0 && n%4 == 0)
  801338:	eb 09                	jmp    801343 <memmove+0x4e>
			asm volatile("std; rep movsl\n"
				:: "D" (d-4), "S" (s-4), "c" (n/4) : "cc", "memory");
		else
			asm volatile("std; rep movsb\n"
  80133a:	83 ef 01             	sub    $0x1,%edi
  80133d:	8d 72 ff             	lea    -0x1(%edx),%esi
  801340:	fd                   	std    
  801341:	f3 a4                	rep movsb %ds:(%esi),%es:(%edi)
				:: "D" (d-1), "S" (s-1), "c" (n) : "cc", "memory");
		// Some versions of GCC rely on DF being clear
		asm volatile("cld" ::: "cc");
  801343:	fc                   	cld    
	const char *s;
	char *d;
	
	s = src;
	d = dst;
	if (s < d && s + n > d) {
  801344:	eb 20                	jmp    801366 <memmove+0x71>
			asm volatile("std; rep movsb\n"
				:: "D" (d-1), "S" (s-1), "c" (n) : "cc", "memory");
		// Some versions of GCC rely on DF being clear
		asm volatile("cld" ::: "cc");
	} else {
		if ((int)s%4 == 0 && (int)d%4 == 0 && n%4 == 0)
  801346:	f7 c6 03 00 00 00    	test   $0x3,%esi
  80134c:	75 15                	jne    801363 <memmove+0x6e>
  80134e:	f7 c7 03 00 00 00    	test   $0x3,%edi
  801354:	75 0d                	jne    801363 <memmove+0x6e>
  801356:	f6 c1 03             	test   $0x3,%cl
  801359:	75 08                	jne    801363 <memmove+0x6e>
			asm volatile("cld; rep movsl\n"
  80135b:	c1 e9 02             	shr    $0x2,%ecx
  80135e:	fc                   	cld    
  80135f:	f3 a5                	rep movsl %ds:(%esi),%es:(%edi)
			asm volatile("std; rep movsb\n"
				:: "D" (d-1), "S" (s-1), "c" (n) : "cc", "memory");
		// Some versions of GCC rely on DF being clear
		asm volatile("cld" ::: "cc");
	} else {
		if ((int)s%4 == 0 && (int)d%4 == 0 && n%4 == 0)
  801361:	eb 03                	jmp    801366 <memmove+0x71>
			asm volatile("cld; rep movsl\n"
				:: "D" (d), "S" (s), "c" (n/4) : "cc", "memory");
		else
			asm volatile("cld; rep movsb\n"
  801363:	fc                   	cld    
  801364:	f3 a4                	rep movsb %ds:(%esi),%es:(%edi)
				:: "D" (d), "S" (s), "c" (n) : "cc", "memory");
	}
	return dst;
}
  801366:	8b 34 24             	mov    (%esp),%esi
  801369:	8b 7c 24 04          	mov    0x4(%esp),%edi
  80136d:	89 ec                	mov    %ebp,%esp
  80136f:	5d                   	pop    %ebp
  801370:	c3                   	ret    

00801371 <memcpy>:

/* sigh - gcc emits references to this for structure assignments! */
/* it is *not* prototyped in inc/string.h - do not use directly. */
void *
memcpy(void *dst, void *src, size_t n)
{
  801371:	55                   	push   %ebp
  801372:	89 e5                	mov    %esp,%ebp
  801374:	83 ec 0c             	sub    $0xc,%esp
	return memmove(dst, src, n);
  801377:	8b 45 10             	mov    0x10(%ebp),%eax
  80137a:	89 44 24 08          	mov    %eax,0x8(%esp)
  80137e:	8b 45 0c             	mov    0xc(%ebp),%eax
  801381:	89 44 24 04          	mov    %eax,0x4(%esp)
  801385:	8b 45 08             	mov    0x8(%ebp),%eax
  801388:	89 04 24             	mov    %eax,(%esp)
  80138b:	e8 65 ff ff ff       	call   8012f5 <memmove>
}
  801390:	c9                   	leave  
  801391:	c3                   	ret    

00801392 <memcmp>:

int
memcmp(const void *v1, const void *v2, size_t n)
{
  801392:	55                   	push   %ebp
  801393:	89 e5                	mov    %esp,%ebp
  801395:	57                   	push   %edi
  801396:	56                   	push   %esi
  801397:	53                   	push   %ebx
  801398:	8b 75 08             	mov    0x8(%ebp),%esi
  80139b:	8b 7d 0c             	mov    0xc(%ebp),%edi
  80139e:	8b 4d 10             	mov    0x10(%ebp),%ecx
	const uint8_t *s1 = (const uint8_t *) v1;
	const uint8_t *s2 = (const uint8_t *) v2;

	while (n-- > 0) {
  8013a1:	85 c9                	test   %ecx,%ecx
  8013a3:	74 36                	je     8013db <memcmp+0x49>
		if (*s1 != *s2)
  8013a5:	0f b6 06             	movzbl (%esi),%eax
  8013a8:	0f b6 1f             	movzbl (%edi),%ebx
  8013ab:	38 d8                	cmp    %bl,%al
  8013ad:	74 20                	je     8013cf <memcmp+0x3d>
  8013af:	eb 14                	jmp    8013c5 <memcmp+0x33>
  8013b1:	0f b6 44 16 01       	movzbl 0x1(%esi,%edx,1),%eax
  8013b6:	0f b6 5c 17 01       	movzbl 0x1(%edi,%edx,1),%ebx
  8013bb:	83 c2 01             	add    $0x1,%edx
  8013be:	83 e9 01             	sub    $0x1,%ecx
  8013c1:	38 d8                	cmp    %bl,%al
  8013c3:	74 12                	je     8013d7 <memcmp+0x45>
			return (int) *s1 - (int) *s2;
  8013c5:	0f b6 c0             	movzbl %al,%eax
  8013c8:	0f b6 db             	movzbl %bl,%ebx
  8013cb:	29 d8                	sub    %ebx,%eax
  8013cd:	eb 11                	jmp    8013e0 <memcmp+0x4e>
memcmp(const void *v1, const void *v2, size_t n)
{
	const uint8_t *s1 = (const uint8_t *) v1;
	const uint8_t *s2 = (const uint8_t *) v2;

	while (n-- > 0) {
  8013cf:	83 e9 01             	sub    $0x1,%ecx
  8013d2:	ba 00 00 00 00       	mov    $0x0,%edx
  8013d7:	85 c9                	test   %ecx,%ecx
  8013d9:	75 d6                	jne    8013b1 <memcmp+0x1f>
  8013db:	b8 00 00 00 00       	mov    $0x0,%eax
			return (int) *s1 - (int) *s2;
		s1++, s2++;
	}

	return 0;
}
  8013e0:	5b                   	pop    %ebx
  8013e1:	5e                   	pop    %esi
  8013e2:	5f                   	pop    %edi
  8013e3:	5d                   	pop    %ebp
  8013e4:	c3                   	ret    

008013e5 <memfind>:

void *
memfind(const void *s, int c, size_t n)
{
  8013e5:	55                   	push   %ebp
  8013e6:	89 e5                	mov    %esp,%ebp
  8013e8:	8b 45 08             	mov    0x8(%ebp),%eax
	const void *ends = (const char *) s + n;
  8013eb:	89 c2                	mov    %eax,%edx
  8013ed:	03 55 10             	add    0x10(%ebp),%edx
	for (; s < ends; s++)
  8013f0:	39 d0                	cmp    %edx,%eax
  8013f2:	73 15                	jae    801409 <memfind+0x24>
		if (*(const unsigned char *) s == (unsigned char) c)
  8013f4:	0f b6 4d 0c          	movzbl 0xc(%ebp),%ecx
  8013f8:	38 08                	cmp    %cl,(%eax)
  8013fa:	75 06                	jne    801402 <memfind+0x1d>
  8013fc:	eb 0b                	jmp    801409 <memfind+0x24>
  8013fe:	38 08                	cmp    %cl,(%eax)
  801400:	74 07                	je     801409 <memfind+0x24>

void *
memfind(const void *s, int c, size_t n)
{
	const void *ends = (const char *) s + n;
	for (; s < ends; s++)
  801402:	83 c0 01             	add    $0x1,%eax
  801405:	39 c2                	cmp    %eax,%edx
  801407:	77 f5                	ja     8013fe <memfind+0x19>
		if (*(const unsigned char *) s == (unsigned char) c)
			break;
	return (void *) s;
}
  801409:	5d                   	pop    %ebp
  80140a:	c3                   	ret    

0080140b <strtol>:

long
strtol(const char *s, char **endptr, int base)
{
  80140b:	55                   	push   %ebp
  80140c:	89 e5                	mov    %esp,%ebp
  80140e:	57                   	push   %edi
  80140f:	56                   	push   %esi
  801410:	53                   	push   %ebx
  801411:	83 ec 04             	sub    $0x4,%esp
  801414:	8b 55 08             	mov    0x8(%ebp),%edx
  801417:	8b 5d 10             	mov    0x10(%ebp),%ebx
	int neg = 0;
	long val = 0;

	// gobble initial whitespace
	while (*s == ' ' || *s == '\t')
  80141a:	0f b6 02             	movzbl (%edx),%eax
  80141d:	3c 20                	cmp    $0x20,%al
  80141f:	74 04                	je     801425 <strtol+0x1a>
  801421:	3c 09                	cmp    $0x9,%al
  801423:	75 0e                	jne    801433 <strtol+0x28>
		s++;
  801425:	83 c2 01             	add    $0x1,%edx
{
	int neg = 0;
	long val = 0;

	// gobble initial whitespace
	while (*s == ' ' || *s == '\t')
  801428:	0f b6 02             	movzbl (%edx),%eax
  80142b:	3c 20                	cmp    $0x20,%al
  80142d:	74 f6                	je     801425 <strtol+0x1a>
  80142f:	3c 09                	cmp    $0x9,%al
  801431:	74 f2                	je     801425 <strtol+0x1a>
		s++;

	// plus/minus sign
	if (*s == '+')
  801433:	3c 2b                	cmp    $0x2b,%al
  801435:	75 0c                	jne    801443 <strtol+0x38>
		s++;
  801437:	83 c2 01             	add    $0x1,%edx
  80143a:	c7 45 f0 00 00 00 00 	movl   $0x0,-0x10(%ebp)
  801441:	eb 15                	jmp    801458 <strtol+0x4d>
	else if (*s == '-')
  801443:	c7 45 f0 00 00 00 00 	movl   $0x0,-0x10(%ebp)
  80144a:	3c 2d                	cmp    $0x2d,%al
  80144c:	75 0a                	jne    801458 <strtol+0x4d>
		s++, neg = 1;
  80144e:	83 c2 01             	add    $0x1,%edx
  801451:	c7 45 f0 01 00 00 00 	movl   $0x1,-0x10(%ebp)

	// hex or octal base prefix
	if ((base == 0 || base == 16) && (s[0] == '0' && s[1] == 'x'))
  801458:	85 db                	test   %ebx,%ebx
  80145a:	0f 94 c0             	sete   %al
  80145d:	74 05                	je     801464 <strtol+0x59>
  80145f:	83 fb 10             	cmp    $0x10,%ebx
  801462:	75 18                	jne    80147c <strtol+0x71>
  801464:	80 3a 30             	cmpb   $0x30,(%edx)
  801467:	75 13                	jne    80147c <strtol+0x71>
  801469:	80 7a 01 78          	cmpb   $0x78,0x1(%edx)
  80146d:	8d 76 00             	lea    0x0(%esi),%esi
  801470:	75 0a                	jne    80147c <strtol+0x71>
		s += 2, base = 16;
  801472:	83 c2 02             	add    $0x2,%edx
  801475:	bb 10 00 00 00       	mov    $0x10,%ebx
		s++;
	else if (*s == '-')
		s++, neg = 1;

	// hex or octal base prefix
	if ((base == 0 || base == 16) && (s[0] == '0' && s[1] == 'x'))
  80147a:	eb 15                	jmp    801491 <strtol+0x86>
		s += 2, base = 16;
	else if (base == 0 && s[0] == '0')
  80147c:	84 c0                	test   %al,%al
  80147e:	66 90                	xchg   %ax,%ax
  801480:	74 0f                	je     801491 <strtol+0x86>
  801482:	bb 0a 00 00 00       	mov    $0xa,%ebx
  801487:	80 3a 30             	cmpb   $0x30,(%edx)
  80148a:	75 05                	jne    801491 <strtol+0x86>
		s++, base = 8;
  80148c:	83 c2 01             	add    $0x1,%edx
  80148f:	b3 08                	mov    $0x8,%bl
		s++, neg = 1;

	// hex or octal base prefix
	if ((base == 0 || base == 16) && (s[0] == '0' && s[1] == 'x'))
		s += 2, base = 16;
	else if (base == 0 && s[0] == '0')
  801491:	b8 00 00 00 00       	mov    $0x0,%eax
  801496:	89 de                	mov    %ebx,%esi

	// digits
	while (1) {
		int dig;

		if (*s >= '0' && *s <= '9')
  801498:	0f b6 0a             	movzbl (%edx),%ecx
  80149b:	89 cf                	mov    %ecx,%edi
  80149d:	8d 59 d0             	lea    -0x30(%ecx),%ebx
  8014a0:	80 fb 09             	cmp    $0x9,%bl
  8014a3:	77 08                	ja     8014ad <strtol+0xa2>
			dig = *s - '0';
  8014a5:	0f be c9             	movsbl %cl,%ecx
  8014a8:	83 e9 30             	sub    $0x30,%ecx
  8014ab:	eb 1e                	jmp    8014cb <strtol+0xc0>
		else if (*s >= 'a' && *s <= 'z')
  8014ad:	8d 5f 9f             	lea    -0x61(%edi),%ebx
  8014b0:	80 fb 19             	cmp    $0x19,%bl
  8014b3:	77 08                	ja     8014bd <strtol+0xb2>
			dig = *s - 'a' + 10;
  8014b5:	0f be c9             	movsbl %cl,%ecx
  8014b8:	83 e9 57             	sub    $0x57,%ecx
  8014bb:	eb 0e                	jmp    8014cb <strtol+0xc0>
		else if (*s >= 'A' && *s <= 'Z')
  8014bd:	8d 5f bf             	lea    -0x41(%edi),%ebx
  8014c0:	80 fb 19             	cmp    $0x19,%bl
  8014c3:	77 15                	ja     8014da <strtol+0xcf>
			dig = *s - 'A' + 10;
  8014c5:	0f be c9             	movsbl %cl,%ecx
  8014c8:	83 e9 37             	sub    $0x37,%ecx
		else
			break;
		if (dig >= base)
  8014cb:	39 f1                	cmp    %esi,%ecx
  8014cd:	7d 0b                	jge    8014da <strtol+0xcf>
			break;
		s++, val = (val * base) + dig;
  8014cf:	83 c2 01             	add    $0x1,%edx
  8014d2:	0f af c6             	imul   %esi,%eax
  8014d5:	8d 04 01             	lea    (%ecx,%eax,1),%eax
		// we don't properly detect overflow!
	}
  8014d8:	eb be                	jmp    801498 <strtol+0x8d>
  8014da:	89 c1                	mov    %eax,%ecx

	if (endptr)
  8014dc:	83 7d 0c 00          	cmpl   $0x0,0xc(%ebp)
  8014e0:	74 05                	je     8014e7 <strtol+0xdc>
		*endptr = (char *) s;
  8014e2:	8b 5d 0c             	mov    0xc(%ebp),%ebx
  8014e5:	89 13                	mov    %edx,(%ebx)
	return (neg ? -val : val);
  8014e7:	89 ca                	mov    %ecx,%edx
  8014e9:	f7 da                	neg    %edx
  8014eb:	83 7d f0 00          	cmpl   $0x0,-0x10(%ebp)
  8014ef:	0f 45 c2             	cmovne %edx,%eax
}
  8014f2:	83 c4 04             	add    $0x4,%esp
  8014f5:	5b                   	pop    %ebx
  8014f6:	5e                   	pop    %esi
  8014f7:	5f                   	pop    %edi
  8014f8:	5d                   	pop    %ebp
  8014f9:	c3                   	ret    
	...

008014fc <syscall>:
#include <inc/syscall.h>
#include <inc/lib.h>

static int32_t
syscall(int num, int check, uint32_t a1, uint32_t a2, uint32_t a3, uint32_t a4, uint32_t a5)
{
  8014fc:	55                   	push   %ebp
  8014fd:	89 e5                	mov    %esp,%ebp
  8014ff:	83 ec 48             	sub    $0x48,%esp
  801502:	89 5d f4             	mov    %ebx,-0xc(%ebp)
  801505:	89 75 f8             	mov    %esi,-0x8(%ebp)
  801508:	89 7d fc             	mov    %edi,-0x4(%ebp)
  80150b:	89 c6                	mov    %eax,%esi
  80150d:	89 55 e4             	mov    %edx,-0x1c(%ebp)
  801510:	89 ca                	mov    %ecx,%edx
	int32_t ret;
	asm volatile("pushl %%ecx\n\t"
  801512:	8b 7d 10             	mov    0x10(%ebp),%edi
  801515:	8b 5d 0c             	mov    0xc(%ebp),%ebx
  801518:	8b 4d 08             	mov    0x8(%ebp),%ecx
  80151b:	51                   	push   %ecx
  80151c:	52                   	push   %edx
  80151d:	53                   	push   %ebx
  80151e:	54                   	push   %esp
  80151f:	55                   	push   %ebp
  801520:	56                   	push   %esi
  801521:	57                   	push   %edi
  801522:	89 e5                	mov    %esp,%ebp
  801524:	8d 35 2c 15 80 00    	lea    0x80152c,%esi
  80152a:	0f 34                	sysenter 

0080152c <.after_sysenter_label>:
  80152c:	5f                   	pop    %edi
  80152d:	5e                   	pop    %esi
  80152e:	5d                   	pop    %ebp
  80152f:	5c                   	pop    %esp
  801530:	5b                   	pop    %ebx
  801531:	5a                   	pop    %edx
  801532:	59                   	pop    %ecx
  801533:	89 c2                	mov    %eax,%edx
                   "b" (a3),
                   "D" (a4)
                 : "cc", "memory");


	if(check && ret > 0)
  801535:	83 7d e4 00          	cmpl   $0x0,-0x1c(%ebp)
  801539:	74 28                	je     801563 <.after_sysenter_label+0x37>
  80153b:	85 c0                	test   %eax,%eax
  80153d:	7e 24                	jle    801563 <.after_sysenter_label+0x37>
		panic("syscall %d returned %d (> 0)", num, ret);
  80153f:	89 44 24 10          	mov    %eax,0x10(%esp)
  801543:	89 74 24 0c          	mov    %esi,0xc(%esp)
  801547:	c7 44 24 08 60 25 81 	movl   $0x812560,0x8(%esp)
  80154e:	00 
  80154f:	c7 44 24 04 2b 00 00 	movl   $0x2b,0x4(%esp)
  801556:	00 
  801557:	c7 04 24 7d 25 81 00 	movl   $0x81257d,(%esp)
  80155e:	e8 b1 f3 ff ff       	call   800914 <_panic>

	return ret;
}
  801563:	89 d0                	mov    %edx,%eax
  801565:	8b 5d f4             	mov    -0xc(%ebp),%ebx
  801568:	8b 75 f8             	mov    -0x8(%ebp),%esi
  80156b:	8b 7d fc             	mov    -0x4(%ebp),%edi
  80156e:	89 ec                	mov    %ebp,%esp
  801570:	5d                   	pop    %ebp
  801571:	c3                   	ret    

00801572 <sys_net_try_send>:
	return (unsigned int) syscall(SYS_time_msec, 0, 0, 0, 0, 0, 0);
}

int
sys_net_try_send(void *data, size_t len)
{
  801572:	55                   	push   %ebp
  801573:	89 e5                	mov    %esp,%ebp
  801575:	83 ec 18             	sub    $0x18,%esp
  return syscall(SYS_net_try_send, 0, (uint32_t)data, len, 0, 0, 0);
  801578:	c7 44 24 0c 00 00 00 	movl   $0x0,0xc(%esp)
  80157f:	00 
  801580:	c7 44 24 08 00 00 00 	movl   $0x0,0x8(%esp)
  801587:	00 
  801588:	c7 44 24 04 00 00 00 	movl   $0x0,0x4(%esp)
  80158f:	00 
  801590:	8b 45 0c             	mov    0xc(%ebp),%eax
  801593:	89 04 24             	mov    %eax,(%esp)
  801596:	8b 4d 08             	mov    0x8(%ebp),%ecx
  801599:	ba 00 00 00 00       	mov    $0x0,%edx
  80159e:	b8 10 00 00 00       	mov    $0x10,%eax
  8015a3:	e8 54 ff ff ff       	call   8014fc <syscall>
}
  8015a8:	c9                   	leave  
  8015a9:	c3                   	ret    

008015aa <sys_time_msec>:
	return syscall(SYS_ipc_recv, 1, (uint32_t)dstva, 0, 0, 0, 0);
}

unsigned int
sys_time_msec(void)
{
  8015aa:	55                   	push   %ebp
  8015ab:	89 e5                	mov    %esp,%ebp
  8015ad:	83 ec 18             	sub    $0x18,%esp
	return (unsigned int) syscall(SYS_time_msec, 0, 0, 0, 0, 0, 0);
  8015b0:	c7 44 24 0c 00 00 00 	movl   $0x0,0xc(%esp)
  8015b7:	00 
  8015b8:	c7 44 24 08 00 00 00 	movl   $0x0,0x8(%esp)
  8015bf:	00 
  8015c0:	c7 44 24 04 00 00 00 	movl   $0x0,0x4(%esp)
  8015c7:	00 
  8015c8:	c7 04 24 00 00 00 00 	movl   $0x0,(%esp)
  8015cf:	b9 00 00 00 00       	mov    $0x0,%ecx
  8015d4:	ba 00 00 00 00       	mov    $0x0,%edx
  8015d9:	b8 0f 00 00 00       	mov    $0xf,%eax
  8015de:	e8 19 ff ff ff       	call   8014fc <syscall>
}
  8015e3:	c9                   	leave  
  8015e4:	c3                   	ret    

008015e5 <sys_ipc_recv>:
	return syscall(SYS_ipc_try_send, 0, envid, value, (uint32_t) srcva, perm, 0);
}

int
sys_ipc_recv(void *dstva)
{
  8015e5:	55                   	push   %ebp
  8015e6:	89 e5                	mov    %esp,%ebp
  8015e8:	83 ec 18             	sub    $0x18,%esp
	return syscall(SYS_ipc_recv, 1, (uint32_t)dstva, 0, 0, 0, 0);
  8015eb:	c7 44 24 0c 00 00 00 	movl   $0x0,0xc(%esp)
  8015f2:	00 
  8015f3:	c7 44 24 08 00 00 00 	movl   $0x0,0x8(%esp)
  8015fa:	00 
  8015fb:	c7 44 24 04 00 00 00 	movl   $0x0,0x4(%esp)
  801602:	00 
  801603:	c7 04 24 00 00 00 00 	movl   $0x0,(%esp)
  80160a:	8b 4d 08             	mov    0x8(%ebp),%ecx
  80160d:	ba 01 00 00 00       	mov    $0x1,%edx
  801612:	b8 0e 00 00 00       	mov    $0xe,%eax
  801617:	e8 e0 fe ff ff       	call   8014fc <syscall>
}
  80161c:	c9                   	leave  
  80161d:	c3                   	ret    

0080161e <sys_ipc_try_send>:
	return syscall(SYS_env_set_pgfault_upcall, 1, envid, (uint32_t) upcall, 0, 0, 0);
}

int
sys_ipc_try_send(envid_t envid, uint32_t value, void *srcva, int perm)
{
  80161e:	55                   	push   %ebp
  80161f:	89 e5                	mov    %esp,%ebp
  801621:	83 ec 18             	sub    $0x18,%esp
	return syscall(SYS_ipc_try_send, 0, envid, value, (uint32_t) srcva, perm, 0);
  801624:	c7 44 24 0c 00 00 00 	movl   $0x0,0xc(%esp)
  80162b:	00 
  80162c:	8b 45 14             	mov    0x14(%ebp),%eax
  80162f:	89 44 24 08          	mov    %eax,0x8(%esp)
  801633:	8b 45 10             	mov    0x10(%ebp),%eax
  801636:	89 44 24 04          	mov    %eax,0x4(%esp)
  80163a:	8b 45 0c             	mov    0xc(%ebp),%eax
  80163d:	89 04 24             	mov    %eax,(%esp)
  801640:	8b 4d 08             	mov    0x8(%ebp),%ecx
  801643:	ba 00 00 00 00       	mov    $0x0,%edx
  801648:	b8 0d 00 00 00       	mov    $0xd,%eax
  80164d:	e8 aa fe ff ff       	call   8014fc <syscall>
}
  801652:	c9                   	leave  
  801653:	c3                   	ret    

00801654 <sys_env_set_pgfault_upcall>:
	return syscall(SYS_env_set_trapframe, 1, envid, (uint32_t) tf, 0, 0, 0);
}

int
sys_env_set_pgfault_upcall(envid_t envid, void *upcall)
{
  801654:	55                   	push   %ebp
  801655:	89 e5                	mov    %esp,%ebp
  801657:	83 ec 18             	sub    $0x18,%esp
	return syscall(SYS_env_set_pgfault_upcall, 1, envid, (uint32_t) upcall, 0, 0, 0);
  80165a:	c7 44 24 0c 00 00 00 	movl   $0x0,0xc(%esp)
  801661:	00 
  801662:	c7 44 24 08 00 00 00 	movl   $0x0,0x8(%esp)
  801669:	00 
  80166a:	c7 44 24 04 00 00 00 	movl   $0x0,0x4(%esp)
  801671:	00 
  801672:	8b 45 0c             	mov    0xc(%ebp),%eax
  801675:	89 04 24             	mov    %eax,(%esp)
  801678:	8b 4d 08             	mov    0x8(%ebp),%ecx
  80167b:	ba 01 00 00 00       	mov    $0x1,%edx
  801680:	b8 0b 00 00 00       	mov    $0xb,%eax
  801685:	e8 72 fe ff ff       	call   8014fc <syscall>
}
  80168a:	c9                   	leave  
  80168b:	c3                   	ret    

0080168c <sys_env_set_trapframe>:
	return syscall(SYS_env_set_status, 1, envid, status, 0, 0, 0);
}

int
sys_env_set_trapframe(envid_t envid, struct Trapframe *tf)
{
  80168c:	55                   	push   %ebp
  80168d:	89 e5                	mov    %esp,%ebp
  80168f:	83 ec 18             	sub    $0x18,%esp
	return syscall(SYS_env_set_trapframe, 1, envid, (uint32_t) tf, 0, 0, 0);
  801692:	c7 44 24 0c 00 00 00 	movl   $0x0,0xc(%esp)
  801699:	00 
  80169a:	c7 44 24 08 00 00 00 	movl   $0x0,0x8(%esp)
  8016a1:	00 
  8016a2:	c7 44 24 04 00 00 00 	movl   $0x0,0x4(%esp)
  8016a9:	00 
  8016aa:	8b 45 0c             	mov    0xc(%ebp),%eax
  8016ad:	89 04 24             	mov    %eax,(%esp)
  8016b0:	8b 4d 08             	mov    0x8(%ebp),%ecx
  8016b3:	ba 01 00 00 00       	mov    $0x1,%edx
  8016b8:	b8 0a 00 00 00       	mov    $0xa,%eax
  8016bd:	e8 3a fe ff ff       	call   8014fc <syscall>
}
  8016c2:	c9                   	leave  
  8016c3:	c3                   	ret    

008016c4 <sys_env_set_status>:

// sys_exofork is inlined in lib.h

int
sys_env_set_status(envid_t envid, int status)
{
  8016c4:	55                   	push   %ebp
  8016c5:	89 e5                	mov    %esp,%ebp
  8016c7:	83 ec 18             	sub    $0x18,%esp
	return syscall(SYS_env_set_status, 1, envid, status, 0, 0, 0);
  8016ca:	c7 44 24 0c 00 00 00 	movl   $0x0,0xc(%esp)
  8016d1:	00 
  8016d2:	c7 44 24 08 00 00 00 	movl   $0x0,0x8(%esp)
  8016d9:	00 
  8016da:	c7 44 24 04 00 00 00 	movl   $0x0,0x4(%esp)
  8016e1:	00 
  8016e2:	8b 45 0c             	mov    0xc(%ebp),%eax
  8016e5:	89 04 24             	mov    %eax,(%esp)
  8016e8:	8b 4d 08             	mov    0x8(%ebp),%ecx
  8016eb:	ba 01 00 00 00       	mov    $0x1,%edx
  8016f0:	b8 09 00 00 00       	mov    $0x9,%eax
  8016f5:	e8 02 fe ff ff       	call   8014fc <syscall>
}
  8016fa:	c9                   	leave  
  8016fb:	c3                   	ret    

008016fc <sys_page_unmap>:
	return syscall(SYS_page_map, 1, srcenv, (uint32_t) srcva, dstenv, (uint32_t) dstva | perm, 0);
}

int
sys_page_unmap(envid_t envid, void *va)
{
  8016fc:	55                   	push   %ebp
  8016fd:	89 e5                	mov    %esp,%ebp
  8016ff:	83 ec 18             	sub    $0x18,%esp
	return syscall(SYS_page_unmap, 1, envid, (uint32_t) va, 0, 0, 0);
  801702:	c7 44 24 0c 00 00 00 	movl   $0x0,0xc(%esp)
  801709:	00 
  80170a:	c7 44 24 08 00 00 00 	movl   $0x0,0x8(%esp)
  801711:	00 
  801712:	c7 44 24 04 00 00 00 	movl   $0x0,0x4(%esp)
  801719:	00 
  80171a:	8b 45 0c             	mov    0xc(%ebp),%eax
  80171d:	89 04 24             	mov    %eax,(%esp)
  801720:	8b 4d 08             	mov    0x8(%ebp),%ecx
  801723:	ba 01 00 00 00       	mov    $0x1,%edx
  801728:	b8 07 00 00 00       	mov    $0x7,%eax
  80172d:	e8 ca fd ff ff       	call   8014fc <syscall>
}
  801732:	c9                   	leave  
  801733:	c3                   	ret    

00801734 <sys_page_map>:
	return syscall(SYS_page_alloc, 1, envid, (uint32_t) va, perm, 0, 0);
}

int
sys_page_map(envid_t srcenv, void *srcva, envid_t dstenv, void *dstva, int perm)
{
  801734:	55                   	push   %ebp
  801735:	89 e5                	mov    %esp,%ebp
  801737:	83 ec 18             	sub    $0x18,%esp
	return syscall(SYS_page_map, 1, srcenv, (uint32_t) srcva, dstenv, (uint32_t) dstva | perm, 0);
  80173a:	c7 44 24 0c 00 00 00 	movl   $0x0,0xc(%esp)
  801741:	00 
  801742:	8b 45 18             	mov    0x18(%ebp),%eax
  801745:	0b 45 14             	or     0x14(%ebp),%eax
  801748:	89 44 24 08          	mov    %eax,0x8(%esp)
  80174c:	8b 45 10             	mov    0x10(%ebp),%eax
  80174f:	89 44 24 04          	mov    %eax,0x4(%esp)
  801753:	8b 45 0c             	mov    0xc(%ebp),%eax
  801756:	89 04 24             	mov    %eax,(%esp)
  801759:	8b 4d 08             	mov    0x8(%ebp),%ecx
  80175c:	ba 01 00 00 00       	mov    $0x1,%edx
  801761:	b8 06 00 00 00       	mov    $0x6,%eax
  801766:	e8 91 fd ff ff       	call   8014fc <syscall>
}
  80176b:	c9                   	leave  
  80176c:	c3                   	ret    

0080176d <sys_page_alloc>:
	syscall(SYS_yield, 0, 0, 0, 0, 0, 0);
}

int
sys_page_alloc(envid_t envid, void *va, int perm)
{
  80176d:	55                   	push   %ebp
  80176e:	89 e5                	mov    %esp,%ebp
  801770:	83 ec 18             	sub    $0x18,%esp
	return syscall(SYS_page_alloc, 1, envid, (uint32_t) va, perm, 0, 0);
  801773:	c7 44 24 0c 00 00 00 	movl   $0x0,0xc(%esp)
  80177a:	00 
  80177b:	c7 44 24 08 00 00 00 	movl   $0x0,0x8(%esp)
  801782:	00 
  801783:	8b 45 10             	mov    0x10(%ebp),%eax
  801786:	89 44 24 04          	mov    %eax,0x4(%esp)
  80178a:	8b 45 0c             	mov    0xc(%ebp),%eax
  80178d:	89 04 24             	mov    %eax,(%esp)
  801790:	8b 4d 08             	mov    0x8(%ebp),%ecx
  801793:	ba 01 00 00 00       	mov    $0x1,%edx
  801798:	b8 05 00 00 00       	mov    $0x5,%eax
  80179d:	e8 5a fd ff ff       	call   8014fc <syscall>
}
  8017a2:	c9                   	leave  
  8017a3:	c3                   	ret    

008017a4 <sys_yield>:
	 return syscall(SYS_map_kernel_page, 0, (uint32_t)kpage, (uint32_t)va, 0, 0, 0);
}

void
sys_yield(void)
{
  8017a4:	55                   	push   %ebp
  8017a5:	89 e5                	mov    %esp,%ebp
  8017a7:	83 ec 18             	sub    $0x18,%esp
	//cprintf("%s:sys_yield[%d]: [%x] calling sys_yield\n", __FILE__, __LINE__, thisenv->env_id);
	syscall(SYS_yield, 0, 0, 0, 0, 0, 0);
  8017aa:	c7 44 24 0c 00 00 00 	movl   $0x0,0xc(%esp)
  8017b1:	00 
  8017b2:	c7 44 24 08 00 00 00 	movl   $0x0,0x8(%esp)
  8017b9:	00 
  8017ba:	c7 44 24 04 00 00 00 	movl   $0x0,0x4(%esp)
  8017c1:	00 
  8017c2:	c7 04 24 00 00 00 00 	movl   $0x0,(%esp)
  8017c9:	b9 00 00 00 00       	mov    $0x0,%ecx
  8017ce:	ba 00 00 00 00       	mov    $0x0,%edx
  8017d3:	b8 0c 00 00 00       	mov    $0xc,%eax
  8017d8:	e8 1f fd ff ff       	call   8014fc <syscall>
}
  8017dd:	c9                   	leave  
  8017de:	c3                   	ret    

008017df <sys_map_kernel_page>:
	 return syscall(SYS_getenvid, 0, 0, 0, 0, 0, 0);
}

int
sys_map_kernel_page(void* kpage, void* va)
{
  8017df:	55                   	push   %ebp
  8017e0:	89 e5                	mov    %esp,%ebp
  8017e2:	83 ec 18             	sub    $0x18,%esp
	 return syscall(SYS_map_kernel_page, 0, (uint32_t)kpage, (uint32_t)va, 0, 0, 0);
  8017e5:	c7 44 24 0c 00 00 00 	movl   $0x0,0xc(%esp)
  8017ec:	00 
  8017ed:	c7 44 24 08 00 00 00 	movl   $0x0,0x8(%esp)
  8017f4:	00 
  8017f5:	c7 44 24 04 00 00 00 	movl   $0x0,0x4(%esp)
  8017fc:	00 
  8017fd:	8b 45 0c             	mov    0xc(%ebp),%eax
  801800:	89 04 24             	mov    %eax,(%esp)
  801803:	8b 4d 08             	mov    0x8(%ebp),%ecx
  801806:	ba 00 00 00 00       	mov    $0x0,%edx
  80180b:	b8 04 00 00 00       	mov    $0x4,%eax
  801810:	e8 e7 fc ff ff       	call   8014fc <syscall>
}
  801815:	c9                   	leave  
  801816:	c3                   	ret    

00801817 <sys_getenvid>:
	return syscall(SYS_env_destroy, 1, envid, 0, 0, 0, 0);
}

envid_t
sys_getenvid(void)
{
  801817:	55                   	push   %ebp
  801818:	89 e5                	mov    %esp,%ebp
  80181a:	83 ec 18             	sub    $0x18,%esp
	 return syscall(SYS_getenvid, 0, 0, 0, 0, 0, 0);
  80181d:	c7 44 24 0c 00 00 00 	movl   $0x0,0xc(%esp)
  801824:	00 
  801825:	c7 44 24 08 00 00 00 	movl   $0x0,0x8(%esp)
  80182c:	00 
  80182d:	c7 44 24 04 00 00 00 	movl   $0x0,0x4(%esp)
  801834:	00 
  801835:	c7 04 24 00 00 00 00 	movl   $0x0,(%esp)
  80183c:	b9 00 00 00 00       	mov    $0x0,%ecx
  801841:	ba 00 00 00 00       	mov    $0x0,%edx
  801846:	b8 02 00 00 00       	mov    $0x2,%eax
  80184b:	e8 ac fc ff ff       	call   8014fc <syscall>
}
  801850:	c9                   	leave  
  801851:	c3                   	ret    

00801852 <sys_env_destroy>:
	return syscall(SYS_cgetc, 0, 0, 0, 0, 0, 0);
}

int
sys_env_destroy(envid_t envid)
{
  801852:	55                   	push   %ebp
  801853:	89 e5                	mov    %esp,%ebp
  801855:	83 ec 18             	sub    $0x18,%esp
	return syscall(SYS_env_destroy, 1, envid, 0, 0, 0, 0);
  801858:	c7 44 24 0c 00 00 00 	movl   $0x0,0xc(%esp)
  80185f:	00 
  801860:	c7 44 24 08 00 00 00 	movl   $0x0,0x8(%esp)
  801867:	00 
  801868:	c7 44 24 04 00 00 00 	movl   $0x0,0x4(%esp)
  80186f:	00 
  801870:	c7 04 24 00 00 00 00 	movl   $0x0,(%esp)
  801877:	8b 4d 08             	mov    0x8(%ebp),%ecx
  80187a:	ba 01 00 00 00       	mov    $0x1,%edx
  80187f:	b8 03 00 00 00       	mov    $0x3,%eax
  801884:	e8 73 fc ff ff       	call   8014fc <syscall>
}
  801889:	c9                   	leave  
  80188a:	c3                   	ret    

0080188b <sys_cgetc>:
	syscall(SYS_cputs, 0, (uint32_t)s, len, 0, 0, 0);
}

int
sys_cgetc(void)
{
  80188b:	55                   	push   %ebp
  80188c:	89 e5                	mov    %esp,%ebp
  80188e:	83 ec 18             	sub    $0x18,%esp
	return syscall(SYS_cgetc, 0, 0, 0, 0, 0, 0);
  801891:	c7 44 24 0c 00 00 00 	movl   $0x0,0xc(%esp)
  801898:	00 
  801899:	c7 44 24 08 00 00 00 	movl   $0x0,0x8(%esp)
  8018a0:	00 
  8018a1:	c7 44 24 04 00 00 00 	movl   $0x0,0x4(%esp)
  8018a8:	00 
  8018a9:	c7 04 24 00 00 00 00 	movl   $0x0,(%esp)
  8018b0:	b9 00 00 00 00       	mov    $0x0,%ecx
  8018b5:	ba 00 00 00 00       	mov    $0x0,%edx
  8018ba:	b8 01 00 00 00       	mov    $0x1,%eax
  8018bf:	e8 38 fc ff ff       	call   8014fc <syscall>
}
  8018c4:	c9                   	leave  
  8018c5:	c3                   	ret    

008018c6 <sys_cputs>:
	return ret;
}

void
sys_cputs(const char *s, size_t len)
{
  8018c6:	55                   	push   %ebp
  8018c7:	89 e5                	mov    %esp,%ebp
  8018c9:	83 ec 18             	sub    $0x18,%esp
	syscall(SYS_cputs, 0, (uint32_t)s, len, 0, 0, 0);
  8018cc:	c7 44 24 0c 00 00 00 	movl   $0x0,0xc(%esp)
  8018d3:	00 
  8018d4:	c7 44 24 08 00 00 00 	movl   $0x0,0x8(%esp)
  8018db:	00 
  8018dc:	c7 44 24 04 00 00 00 	movl   $0x0,0x4(%esp)
  8018e3:	00 
  8018e4:	8b 45 0c             	mov    0xc(%ebp),%eax
  8018e7:	89 04 24             	mov    %eax,(%esp)
  8018ea:	8b 4d 08             	mov    0x8(%ebp),%ecx
  8018ed:	ba 00 00 00 00       	mov    $0x0,%edx
  8018f2:	b8 00 00 00 00       	mov    $0x0,%eax
  8018f7:	e8 00 fc ff ff       	call   8014fc <syscall>
}
  8018fc:	c9                   	leave  
  8018fd:	c3                   	ret    
	...

00801900 <sfork>:
}

// Challenge!
int
sfork(void)
{
  801900:	55                   	push   %ebp
  801901:	89 e5                	mov    %esp,%ebp
  801903:	83 ec 18             	sub    $0x18,%esp
	panic("sfork not implemented");
  801906:	c7 44 24 08 8b 25 81 	movl   $0x81258b,0x8(%esp)
  80190d:	00 
  80190e:	c7 44 24 04 a4 00 00 	movl   $0xa4,0x4(%esp)
  801915:	00 
  801916:	c7 04 24 a1 25 81 00 	movl   $0x8125a1,(%esp)
  80191d:	e8 f2 ef ff ff       	call   800914 <_panic>

00801922 <fork>:
//   Neither user exception stack should ever be marked copy-on-write,
//   so you must allocate a new page for the child's user exception stack.
//
envid_t
fork(void)
{
  801922:	55                   	push   %ebp
  801923:	89 e5                	mov    %esp,%ebp
  801925:	57                   	push   %edi
  801926:	56                   	push   %esi
  801927:	53                   	push   %ebx
  801928:	83 ec 3c             	sub    $0x3c,%esp
	envid_t envidnum;
	uint32_t addr;
	int r;
	extern void _pgfault_upcall(void);
	
	set_pgfault_handler(pgfault);
  80192b:	c7 04 24 e6 1b 80 00 	movl   $0x801be6,(%esp)
  801932:	e8 15 16 00 00       	call   802f4c <set_pgfault_handler>
static __inline envid_t __attribute__((always_inline))
sys_exofork(void)
{
	envid_t ret;
	//if I push esp it will be a pagefault.I come across a bug here.
	__asm __volatile(  
  801937:	ba 08 00 00 00       	mov    $0x8,%edx
  80193c:	89 d0                	mov    %edx,%eax
  80193e:	51                   	push   %ecx
  80193f:	52                   	push   %edx
  801940:	53                   	push   %ebx
  801941:	55                   	push   %ebp
  801942:	56                   	push   %esi
  801943:	57                   	push   %edi
  801944:	89 e5                	mov    %esp,%ebp
  801946:	8d 35 4e 19 80 00    	lea    0x80194e,%esi
  80194c:	0f 34                	sysenter 

0080194e <.after_sysenter_label>:
  80194e:	5f                   	pop    %edi
  80194f:	5e                   	pop    %esi
  801950:	5d                   	pop    %ebp
  801951:	5b                   	pop    %ebx
  801952:	5a                   	pop    %edx
  801953:	59                   	pop    %ecx
  801954:	89 45 e0             	mov    %eax,-0x20(%ebp)
	
	envidnum = sys_exofork();
	cprintf("%s:fork[%d]: sys_exofork() return %x\n",__FILE__, __LINE__, envidnum);
  801957:	89 44 24 0c          	mov    %eax,0xc(%esp)
  80195b:	c7 44 24 08 80 00 00 	movl   $0x80,0x8(%esp)
  801962:	00 
  801963:	c7 44 24 04 a1 25 81 	movl   $0x8125a1,0x4(%esp)
  80196a:	00 
  80196b:	c7 04 24 e8 25 81 00 	movl   $0x8125e8,(%esp)
  801972:	e8 56 f0 ff ff       	call   8009cd <cprintf>
	if (envidnum < 0)
  801977:	83 7d e0 00          	cmpl   $0x0,-0x20(%ebp)
  80197b:	79 23                	jns    8019a0 <.after_sysenter_label+0x52>
		panic("sys_exofork: %e", envidnum);
  80197d:	8b 45 e0             	mov    -0x20(%ebp),%eax
  801980:	89 44 24 0c          	mov    %eax,0xc(%esp)
  801984:	c7 44 24 08 ac 25 81 	movl   $0x8125ac,0x8(%esp)
  80198b:	00 
  80198c:	c7 44 24 04 82 00 00 	movl   $0x82,0x4(%esp)
  801993:	00 
  801994:	c7 04 24 a1 25 81 00 	movl   $0x8125a1,(%esp)
  80199b:	e8 74 ef ff ff       	call   800914 <_panic>
	// Were the child
	if (envidnum == 0) {
		thisenv = &envs[ENVX(sys_getenvid())];
		return 0;
  8019a0:	bb 00 00 80 00       	mov    $0x800000,%ebx
	}
	// Were the parent.
	for (addr =  UTEXT; addr < UXSTACKTOP - PGSIZE; addr += PGSIZE) 
	{
		if(	(vpd[PDX(addr)] & PTE_P) > 0 && (vpt[PGNUM(addr)] & PTE_P) > 0 && (vpt[PGNUM(addr)] & PTE_U) > 0)
  8019a5:	be 00 d0 7b ef       	mov    $0xef7bd000,%esi
  8019aa:	bf 00 00 40 ef       	mov    $0xef400000,%edi
	envidnum = sys_exofork();
	cprintf("%s:fork[%d]: sys_exofork() return %x\n",__FILE__, __LINE__, envidnum);
	if (envidnum < 0)
		panic("sys_exofork: %e", envidnum);
	// Were the child
	if (envidnum == 0) {
  8019af:	83 7d e0 00          	cmpl   $0x0,-0x20(%ebp)
  8019b3:	75 1c                	jne    8019d1 <.after_sysenter_label+0x83>
		thisenv = &envs[ENVX(sys_getenvid())];
  8019b5:	e8 5d fe ff ff       	call   801817 <sys_getenvid>
  8019ba:	25 ff 03 00 00       	and    $0x3ff,%eax
  8019bf:	c1 e0 07             	shl    $0x7,%eax
  8019c2:	05 00 00 c0 ee       	add    $0xeec00000,%eax
  8019c7:	a3 74 c2 b3 00       	mov    %eax,0xb3c274
		return 0;
  8019cc:	e9 0a 02 00 00       	jmp    801bdb <.after_sysenter_label+0x28d>
	}
	// Were the parent.
	for (addr =  UTEXT; addr < UXSTACKTOP - PGSIZE; addr += PGSIZE) 
	{
		if(	(vpd[PDX(addr)] & PTE_P) > 0 && (vpt[PGNUM(addr)] & PTE_P) > 0 && (vpt[PGNUM(addr)] & PTE_U) > 0)
  8019d1:	89 d8                	mov    %ebx,%eax
  8019d3:	c1 e8 16             	shr    $0x16,%eax
  8019d6:	8b 04 86             	mov    (%esi,%eax,4),%eax
  8019d9:	a8 01                	test   $0x1,%al
  8019db:	0f 84 43 01 00 00    	je     801b24 <.after_sysenter_label+0x1d6>
  8019e1:	89 d8                	mov    %ebx,%eax
  8019e3:	c1 e8 0c             	shr    $0xc,%eax
  8019e6:	8b 14 87             	mov    (%edi,%eax,4),%edx
  8019e9:	f6 c2 01             	test   $0x1,%dl
  8019ec:	0f 84 32 01 00 00    	je     801b24 <.after_sysenter_label+0x1d6>
  8019f2:	8b 14 87             	mov    (%edi,%eax,4),%edx
  8019f5:	f6 c2 04             	test   $0x4,%dl
  8019f8:	0f 84 26 01 00 00    	je     801b24 <.after_sysenter_label+0x1d6>
{
	int r;

	// LAB 4: Your code here.
	int perm;
	void * addr = (void *) ((uint32_t) pn * PGSIZE);
  8019fe:	c1 e0 0c             	shl    $0xc,%eax
  801a01:	89 45 e4             	mov    %eax,-0x1c(%ebp)
	pte_t pte = vpt[PGNUM(addr)];
  801a04:	c1 e8 0c             	shr    $0xc,%eax
  801a07:	8b 04 87             	mov    (%edi,%eax,4),%eax
	perm = pte & PTE_SYSCALL;
  801a0a:	89 c2                	mov    %eax,%edx
  801a0c:	81 e2 07 0e 00 00    	and    $0xe07,%edx
	
	if (perm & (PTE_W|PTE_COW)) 
  801a12:	a9 02 08 00 00       	test   $0x802,%eax
  801a17:	0f 84 a0 00 00 00    	je     801abd <.after_sysenter_label+0x16f>
	{
		 perm &= ~PTE_W;
  801a1d:	83 e2 fd             	and    $0xfffffffd,%edx
		 perm |= PTE_COW;
  801a20:	80 ce 08             	or     $0x8,%dh
  801a23:	89 55 dc             	mov    %edx,-0x24(%ebp)
		//map in child
		if ((r = sys_page_map(0, addr, envid, addr, perm)) < 0)
  801a26:	89 54 24 10          	mov    %edx,0x10(%esp)
  801a2a:	8b 45 e4             	mov    -0x1c(%ebp),%eax
  801a2d:	89 44 24 0c          	mov    %eax,0xc(%esp)
  801a31:	8b 45 e0             	mov    -0x20(%ebp),%eax
  801a34:	89 44 24 08          	mov    %eax,0x8(%esp)
  801a38:	8b 45 e4             	mov    -0x1c(%ebp),%eax
  801a3b:	89 44 24 04          	mov    %eax,0x4(%esp)
  801a3f:	c7 04 24 00 00 00 00 	movl   $0x0,(%esp)
  801a46:	e8 e9 fc ff ff       	call   801734 <sys_page_map>
  801a4b:	85 c0                	test   %eax,%eax
  801a4d:	79 20                	jns    801a6f <.after_sysenter_label+0x121>
			panic ("duppage: page re-mapping failed at 1 : %e", r);
  801a4f:	89 44 24 0c          	mov    %eax,0xc(%esp)
  801a53:	c7 44 24 08 10 26 81 	movl   $0x812610,0x8(%esp)
  801a5a:	00 
  801a5b:	c7 44 24 04 54 00 00 	movl   $0x54,0x4(%esp)
  801a62:	00 
  801a63:	c7 04 24 a1 25 81 00 	movl   $0x8125a1,(%esp)
  801a6a:	e8 a5 ee ff ff       	call   800914 <_panic>
		//remap in the parent		
		if ((r = sys_page_map(0, addr, 0, addr, perm)) < 0)
  801a6f:	8b 45 dc             	mov    -0x24(%ebp),%eax
  801a72:	89 44 24 10          	mov    %eax,0x10(%esp)
  801a76:	8b 45 e4             	mov    -0x1c(%ebp),%eax
  801a79:	89 44 24 0c          	mov    %eax,0xc(%esp)
  801a7d:	c7 44 24 08 00 00 00 	movl   $0x0,0x8(%esp)
  801a84:	00 
  801a85:	89 44 24 04          	mov    %eax,0x4(%esp)
  801a89:	c7 04 24 00 00 00 00 	movl   $0x0,(%esp)
  801a90:	e8 9f fc ff ff       	call   801734 <sys_page_map>
  801a95:	85 c0                	test   %eax,%eax
  801a97:	0f 89 87 00 00 00    	jns    801b24 <.after_sysenter_label+0x1d6>
			panic ("duppage: page re-mapping failed at 2 : %e", r);
  801a9d:	89 44 24 0c          	mov    %eax,0xc(%esp)
  801aa1:	c7 44 24 08 3c 26 81 	movl   $0x81263c,0x8(%esp)
  801aa8:	00 
  801aa9:	c7 44 24 04 57 00 00 	movl   $0x57,0x4(%esp)
  801ab0:	00 
  801ab1:	c7 04 24 a1 25 81 00 	movl   $0x8125a1,(%esp)
  801ab8:	e8 57 ee ff ff       	call   800914 <_panic>
	}
	else //include PTE_SHARE
	{
		cprintf("map two %x----%x\n",envid,addr);
  801abd:	8b 45 e4             	mov    -0x1c(%ebp),%eax
  801ac0:	89 44 24 08          	mov    %eax,0x8(%esp)
  801ac4:	8b 45 e0             	mov    -0x20(%ebp),%eax
  801ac7:	89 44 24 04          	mov    %eax,0x4(%esp)
  801acb:	c7 04 24 bc 25 81 00 	movl   $0x8125bc,(%esp)
  801ad2:	e8 f6 ee ff ff       	call   8009cd <cprintf>
		if ((r = sys_page_map (0, addr, envid, addr, PTE_U|PTE_P)) < 0)
  801ad7:	c7 44 24 10 05 00 00 	movl   $0x5,0x10(%esp)
  801ade:	00 
  801adf:	8b 45 e4             	mov    -0x1c(%ebp),%eax
  801ae2:	89 44 24 0c          	mov    %eax,0xc(%esp)
  801ae6:	8b 45 e0             	mov    -0x20(%ebp),%eax
  801ae9:	89 44 24 08          	mov    %eax,0x8(%esp)
  801aed:	8b 45 e4             	mov    -0x1c(%ebp),%eax
  801af0:	89 44 24 04          	mov    %eax,0x4(%esp)
  801af4:	c7 04 24 00 00 00 00 	movl   $0x0,(%esp)
  801afb:	e8 34 fc ff ff       	call   801734 <sys_page_map>
  801b00:	85 c0                	test   %eax,%eax
  801b02:	79 20                	jns    801b24 <.after_sysenter_label+0x1d6>
			panic ("duppage: page re-mapping failed at 3 : %e", r);
  801b04:	89 44 24 0c          	mov    %eax,0xc(%esp)
  801b08:	c7 44 24 08 68 26 81 	movl   $0x812668,0x8(%esp)
  801b0f:	00 
  801b10:	c7 44 24 04 5d 00 00 	movl   $0x5d,0x4(%esp)
  801b17:	00 
  801b18:	c7 04 24 a1 25 81 00 	movl   $0x8125a1,(%esp)
  801b1f:	e8 f0 ed ff ff       	call   800914 <_panic>
	if (envidnum == 0) {
		thisenv = &envs[ENVX(sys_getenvid())];
		return 0;
	}
	// Were the parent.
	for (addr =  UTEXT; addr < UXSTACKTOP - PGSIZE; addr += PGSIZE) 
  801b24:	81 c3 00 10 00 00    	add    $0x1000,%ebx
  801b2a:	81 fb 00 f0 bf ee    	cmp    $0xeebff000,%ebx
  801b30:	0f 85 9b fe ff ff    	jne    8019d1 <.after_sysenter_label+0x83>
	{
		if(	(vpd[PDX(addr)] & PTE_P) > 0 && (vpt[PGNUM(addr)] & PTE_P) > 0 && (vpt[PGNUM(addr)] & PTE_U) > 0)
			duppage(envidnum,PGNUM(addr));
	}
	if ((r = sys_page_alloc (envidnum, (void *)(UXSTACKTOP - PGSIZE), PTE_U|PTE_W|PTE_P)) < 0)
  801b36:	c7 44 24 08 07 00 00 	movl   $0x7,0x8(%esp)
  801b3d:	00 
  801b3e:	c7 44 24 04 00 f0 bf 	movl   $0xeebff000,0x4(%esp)
  801b45:	ee 
  801b46:	8b 45 e0             	mov    -0x20(%ebp),%eax
  801b49:	89 04 24             	mov    %eax,(%esp)
  801b4c:	e8 1c fc ff ff       	call   80176d <sys_page_alloc>
  801b51:	85 c0                	test   %eax,%eax
  801b53:	79 20                	jns    801b75 <.after_sysenter_label+0x227>
		panic ("fork: page allocation failed : %e", r);
  801b55:	89 44 24 0c          	mov    %eax,0xc(%esp)
  801b59:	c7 44 24 08 94 26 81 	movl   $0x812694,0x8(%esp)
  801b60:	00 
  801b61:	c7 44 24 04 8f 00 00 	movl   $0x8f,0x4(%esp)
  801b68:	00 
  801b69:	c7 04 24 a1 25 81 00 	movl   $0x8125a1,(%esp)
  801b70:	e8 9f ed ff ff       	call   800914 <_panic>
	//cprintf("%x-----%x\n",&envid,envid);
	sys_env_set_pgfault_upcall (envidnum, _pgfault_upcall);
  801b75:	c7 44 24 04 bc 2f 80 	movl   $0x802fbc,0x4(%esp)
  801b7c:	00 
  801b7d:	8b 45 e0             	mov    -0x20(%ebp),%eax
  801b80:	89 04 24             	mov    %eax,(%esp)
  801b83:	e8 cc fa ff ff       	call   801654 <sys_env_set_pgfault_upcall>
	//cprintf("%x-----%x\n",&envid,envid);
	// Start the child environment running
	if((r = sys_env_set_status(envidnum, ENV_RUNNABLE)) < 0)
  801b88:	c7 44 24 04 02 00 00 	movl   $0x2,0x4(%esp)
  801b8f:	00 
  801b90:	8b 45 e0             	mov    -0x20(%ebp),%eax
  801b93:	89 04 24             	mov    %eax,(%esp)
  801b96:	e8 29 fb ff ff       	call   8016c4 <sys_env_set_status>
  801b9b:	85 c0                	test   %eax,%eax
  801b9d:	79 20                	jns    801bbf <.after_sysenter_label+0x271>
		panic("fork: set child env status failed : %e", r);
  801b9f:	89 44 24 0c          	mov    %eax,0xc(%esp)
  801ba3:	c7 44 24 08 b8 26 81 	movl   $0x8126b8,0x8(%esp)
  801baa:	00 
  801bab:	c7 44 24 04 95 00 00 	movl   $0x95,0x4(%esp)
  801bb2:	00 
  801bb3:	c7 04 24 a1 25 81 00 	movl   $0x8125a1,(%esp)
  801bba:	e8 55 ed ff ff       	call   800914 <_panic>
	//cprintf("%x-----%x\n",&envid,envid);
	//cprintf("fork in %x have set %x ,runnable\n",sys_getenvid(),envidnum);
	//cprintf("fork in %x have set %x ,runnable\n",sys_getenvid(),envidnum);
	//cprintf("%x-----%x\n",&envidnum,envidnum);
	cprintf("%s:fork[%d]: fork return\n", __FILE__, __LINE__);
  801bbf:	c7 44 24 08 9a 00 00 	movl   $0x9a,0x8(%esp)
  801bc6:	00 
  801bc7:	c7 44 24 04 a1 25 81 	movl   $0x8125a1,0x4(%esp)
  801bce:	00 
  801bcf:	c7 04 24 ce 25 81 00 	movl   $0x8125ce,(%esp)
  801bd6:	e8 f2 ed ff ff       	call   8009cd <cprintf>
	return envidnum;

	//panic("fork not implemented");
}
  801bdb:	8b 45 e0             	mov    -0x20(%ebp),%eax
  801bde:	83 c4 3c             	add    $0x3c,%esp
  801be1:	5b                   	pop    %ebx
  801be2:	5e                   	pop    %esi
  801be3:	5f                   	pop    %edi
  801be4:	5d                   	pop    %ebp
  801be5:	c3                   	ret    

00801be6 <pgfault>:
// Custom page fault handler - if faulting page is copy-on-write,
// map in our own private writable copy.
//
static void
pgfault(struct UTrapframe *utf)
{
  801be6:	55                   	push   %ebp
  801be7:	89 e5                	mov    %esp,%ebp
  801be9:	53                   	push   %ebx
  801bea:	83 ec 24             	sub    $0x24,%esp
  801bed:	8b 45 08             	mov    0x8(%ebp),%eax
	void *addr = (void *) utf->utf_fault_va;
  801bf0:	8b 18                	mov    (%eax),%ebx
	uint32_t err = utf->utf_err;
  801bf2:	8b 50 04             	mov    0x4(%eax),%edx
	// Hint:
	//   Use the read-only page table mappings at vpt
	//   (see <inc/memlayout.h>).
	//cprintf("pgfault: do page fault here %x\n",utf->utf_eflags);
	// LAB 4: Your code here.
	if((err & FEC_WR) == 0)
  801bf5:	f6 c2 02             	test   $0x2,%dl
  801bf8:	75 2b                	jne    801c25 <pgfault+0x3f>
		panic("pgfault: fault is not a write (err: %08x va: %08x ip: %08x)",err, addr, utf->utf_eip);
  801bfa:	8b 40 28             	mov    0x28(%eax),%eax
  801bfd:	89 44 24 14          	mov    %eax,0x14(%esp)
  801c01:	89 5c 24 10          	mov    %ebx,0x10(%esp)
  801c05:	89 54 24 0c          	mov    %edx,0xc(%esp)
  801c09:	c7 44 24 08 e0 26 81 	movl   $0x8126e0,0x8(%esp)
  801c10:	00 
  801c11:	c7 44 24 04 1c 00 00 	movl   $0x1c,0x4(%esp)
  801c18:	00 
  801c19:	c7 04 24 a1 25 81 00 	movl   $0x8125a1,(%esp)
  801c20:	e8 ef ec ff ff       	call   800914 <_panic>
	if ((vpd[PDX(addr)] & PTE_P) == 0 || (vpt[PGNUM(addr)] & PTE_COW) == 0)
  801c25:	89 d8                	mov    %ebx,%eax
  801c27:	c1 e8 16             	shr    $0x16,%eax
  801c2a:	8b 04 85 00 d0 7b ef 	mov    -0x10843000(,%eax,4),%eax
  801c31:	a8 01                	test   $0x1,%al
  801c33:	74 11                	je     801c46 <pgfault+0x60>
  801c35:	89 d8                	mov    %ebx,%eax
  801c37:	c1 e8 0c             	shr    $0xc,%eax
  801c3a:	8b 04 85 00 00 40 ef 	mov    -0x10c00000(,%eax,4),%eax
  801c41:	f6 c4 08             	test   $0x8,%ah
  801c44:	75 1c                	jne    801c62 <pgfault+0x7c>
		panic ("pgfault: not a write or attempting to access a non-COW page");
  801c46:	c7 44 24 08 1c 27 81 	movl   $0x81271c,0x8(%esp)
  801c4d:	00 
  801c4e:	c7 44 24 04 1e 00 00 	movl   $0x1e,0x4(%esp)
  801c55:	00 
  801c56:	c7 04 24 a1 25 81 00 	movl   $0x8125a1,(%esp)
  801c5d:	e8 b2 ec ff ff       	call   800914 <_panic>
	// Hint:
	//   You should make three system calls.
	//   No need to explicitly delete the old page's mapping.

	// LAB 4: Your code here.
	if ((r = sys_page_alloc (0, (void *)PFTEMP, PTE_U|PTE_P|PTE_W)) < 0)
  801c62:	c7 44 24 08 07 00 00 	movl   $0x7,0x8(%esp)
  801c69:	00 
  801c6a:	c7 44 24 04 00 f0 7f 	movl   $0x7ff000,0x4(%esp)
  801c71:	00 
  801c72:	c7 04 24 00 00 00 00 	movl   $0x0,(%esp)
  801c79:	e8 ef fa ff ff       	call   80176d <sys_page_alloc>
  801c7e:	85 c0                	test   %eax,%eax
  801c80:	79 20                	jns    801ca2 <pgfault+0xbc>
		panic ("pgfault: page allocation failed : %e", r);
  801c82:	89 44 24 0c          	mov    %eax,0xc(%esp)
  801c86:	c7 44 24 08 58 27 81 	movl   $0x812758,0x8(%esp)
  801c8d:	00 
  801c8e:	c7 44 24 04 28 00 00 	movl   $0x28,0x4(%esp)
  801c95:	00 
  801c96:	c7 04 24 a1 25 81 00 	movl   $0x8125a1,(%esp)
  801c9d:	e8 72 ec ff ff       	call   800914 <_panic>
	addr = ROUNDDOWN (addr, PGSIZE);
  801ca2:	81 e3 00 f0 ff ff    	and    $0xfffff000,%ebx
	memmove (PFTEMP, addr, PGSIZE);
  801ca8:	c7 44 24 08 00 10 00 	movl   $0x1000,0x8(%esp)
  801caf:	00 
  801cb0:	89 5c 24 04          	mov    %ebx,0x4(%esp)
  801cb4:	c7 04 24 00 f0 7f 00 	movl   $0x7ff000,(%esp)
  801cbb:	e8 35 f6 ff ff       	call   8012f5 <memmove>
	if((r = sys_page_map (0, PFTEMP, 0, addr, PTE_U|PTE_P|PTE_W)) < 0)
  801cc0:	c7 44 24 10 07 00 00 	movl   $0x7,0x10(%esp)
  801cc7:	00 
  801cc8:	89 5c 24 0c          	mov    %ebx,0xc(%esp)
  801ccc:	c7 44 24 08 00 00 00 	movl   $0x0,0x8(%esp)
  801cd3:	00 
  801cd4:	c7 44 24 04 00 f0 7f 	movl   $0x7ff000,0x4(%esp)
  801cdb:	00 
  801cdc:	c7 04 24 00 00 00 00 	movl   $0x0,(%esp)
  801ce3:	e8 4c fa ff ff       	call   801734 <sys_page_map>
  801ce8:	85 c0                	test   %eax,%eax
  801cea:	79 20                	jns    801d0c <pgfault+0x126>
		panic ("pgfault: page mapping failed : %e", r);
  801cec:	89 44 24 0c          	mov    %eax,0xc(%esp)
  801cf0:	c7 44 24 08 80 27 81 	movl   $0x812780,0x8(%esp)
  801cf7:	00 
  801cf8:	c7 44 24 04 2c 00 00 	movl   $0x2c,0x4(%esp)
  801cff:	00 
  801d00:	c7 04 24 a1 25 81 00 	movl   $0x8125a1,(%esp)
  801d07:	e8 08 ec ff ff       	call   800914 <_panic>
	if((r = sys_page_unmap(0,PFTEMP)) < 0)
  801d0c:	c7 44 24 04 00 f0 7f 	movl   $0x7ff000,0x4(%esp)
  801d13:	00 
  801d14:	c7 04 24 00 00 00 00 	movl   $0x0,(%esp)
  801d1b:	e8 dc f9 ff ff       	call   8016fc <sys_page_unmap>
  801d20:	85 c0                	test   %eax,%eax
  801d22:	79 20                	jns    801d44 <pgfault+0x15e>
		panic("pgfault: page unmapping failed : %e", r);
  801d24:	89 44 24 0c          	mov    %eax,0xc(%esp)
  801d28:	c7 44 24 08 a4 27 81 	movl   $0x8127a4,0x8(%esp)
  801d2f:	00 
  801d30:	c7 44 24 04 2e 00 00 	movl   $0x2e,0x4(%esp)
  801d37:	00 
  801d38:	c7 04 24 a1 25 81 00 	movl   $0x8125a1,(%esp)
  801d3f:	e8 d0 eb ff ff       	call   800914 <_panic>
	/* __asm__ volatile("movl %%esp, %0\n\t" */
	/* 		 :"=r"(gaga) */
	/* 		 ::); */
	/* cprintf("gaga----------%x\n", gaga); */
	//panic("pgfault not implemented");
}
  801d44:	83 c4 24             	add    $0x24,%esp
  801d47:	5b                   	pop    %ebx
  801d48:	5d                   	pop    %ebp
  801d49:	c3                   	ret    
  801d4a:	00 00                	add    %al,(%eax)
  801d4c:	00 00                	add    %al,(%eax)
	...

00801d50 <ipc_find_env>:
// Find the first environment of the given type.  We'll use this to
// find special environments.
// Returns 0 if no such environment exists.
envid_t
ipc_find_env(enum EnvType type)
{
  801d50:	55                   	push   %ebp
  801d51:	89 e5                	mov    %esp,%ebp
  801d53:	8b 4d 08             	mov    0x8(%ebp),%ecx
	int i;
	for (i = 0; i < NENV; i++)
		if (envs[i].env_type == type)
  801d56:	8b 15 50 00 c0 ee    	mov    0xeec00050,%edx
  801d5c:	b8 01 00 00 00       	mov    $0x1,%eax
  801d61:	39 ca                	cmp    %ecx,%edx
  801d63:	75 04                	jne    801d69 <ipc_find_env+0x19>
  801d65:	b0 00                	mov    $0x0,%al
  801d67:	eb 11                	jmp    801d7a <ipc_find_env+0x2a>
  801d69:	89 c2                	mov    %eax,%edx
  801d6b:	c1 e2 07             	shl    $0x7,%edx
  801d6e:	81 c2 50 00 c0 ee    	add    $0xeec00050,%edx
  801d74:	8b 12                	mov    (%edx),%edx
  801d76:	39 ca                	cmp    %ecx,%edx
  801d78:	75 0f                	jne    801d89 <ipc_find_env+0x39>
			return envs[i].env_id;
  801d7a:	8d 44 00 01          	lea    0x1(%eax,%eax,1),%eax
  801d7e:	c1 e0 06             	shl    $0x6,%eax
  801d81:	8b 80 08 00 c0 ee    	mov    -0x113ffff8(%eax),%eax
  801d87:	eb 0e                	jmp    801d97 <ipc_find_env+0x47>
// Returns 0 if no such environment exists.
envid_t
ipc_find_env(enum EnvType type)
{
	int i;
	for (i = 0; i < NENV; i++)
  801d89:	83 c0 01             	add    $0x1,%eax
  801d8c:	3d 00 04 00 00       	cmp    $0x400,%eax
  801d91:	75 d6                	jne    801d69 <ipc_find_env+0x19>
  801d93:	66 b8 00 00          	mov    $0x0,%ax
		if (envs[i].env_type == type)
			return envs[i].env_id;
	return 0;
}
  801d97:	5d                   	pop    %ebp
  801d98:	c3                   	ret    

00801d99 <ipc_send>:
//   Use sys_yield() to be CPU-friendly.
//   If 'pg' is null, pass sys_ipc_recv a value that it will understand
//   as meaning "no page".  (Zero is not the right value.)
void
ipc_send(envid_t to_env, uint32_t val, void *pg, int perm)
{
  801d99:	55                   	push   %ebp
  801d9a:	89 e5                	mov    %esp,%ebp
  801d9c:	57                   	push   %edi
  801d9d:	56                   	push   %esi
  801d9e:	53                   	push   %ebx
  801d9f:	83 ec 1c             	sub    $0x1c,%esp
  801da2:	8b 75 08             	mov    0x8(%ebp),%esi
  801da5:	8b 7d 0c             	mov    0xc(%ebp),%edi
  801da8:	8b 5d 10             	mov    0x10(%ebp),%ebx
	// LAB 4: Your code here.
	int r;
	if(!pg)
  801dab:	85 db                	test   %ebx,%ebx
  801dad:	b8 00 00 c0 ee       	mov    $0xeec00000,%eax
  801db2:	0f 44 d8             	cmove  %eax,%ebx
  801db5:	eb 25                	jmp    801ddc <ipc_send+0x43>
		pg = (void*)UTOP; 
	while((r = sys_ipc_try_send(to_env,val,pg,perm)) != 0)
	{
		if(/* r < 0 && */r != -E_IPC_NOT_RECV )
  801db7:	83 f8 f9             	cmp    $0xfffffff9,%eax
  801dba:	74 20                	je     801ddc <ipc_send+0x43>
			panic ("ipc: sys try send failed : %e", r);
  801dbc:	89 44 24 0c          	mov    %eax,0xc(%esp)
  801dc0:	c7 44 24 08 c8 27 81 	movl   $0x8127c8,0x8(%esp)
  801dc7:	00 
  801dc8:	c7 44 24 04 41 00 00 	movl   $0x41,0x4(%esp)
  801dcf:	00 
  801dd0:	c7 04 24 e6 27 81 00 	movl   $0x8127e6,(%esp)
  801dd7:	e8 38 eb ff ff       	call   800914 <_panic>
{
	// LAB 4: Your code here.
	int r;
	if(!pg)
		pg = (void*)UTOP; 
	while((r = sys_ipc_try_send(to_env,val,pg,perm)) != 0)
  801ddc:	8b 45 14             	mov    0x14(%ebp),%eax
  801ddf:	89 44 24 0c          	mov    %eax,0xc(%esp)
  801de3:	89 5c 24 08          	mov    %ebx,0x8(%esp)
  801de7:	89 7c 24 04          	mov    %edi,0x4(%esp)
  801deb:	89 34 24             	mov    %esi,(%esp)
  801dee:	e8 2b f8 ff ff       	call   80161e <sys_ipc_try_send>
  801df3:	85 c0                	test   %eax,%eax
  801df5:	75 c0                	jne    801db7 <ipc_send+0x1e>
	{
		if(/* r < 0 && */r != -E_IPC_NOT_RECV )
			panic ("ipc: sys try send failed : %e", r);
	}
	sys_yield();
  801df7:	e8 a8 f9 ff ff       	call   8017a4 <sys_yield>
}
  801dfc:	83 c4 1c             	add    $0x1c,%esp
  801dff:	5b                   	pop    %ebx
  801e00:	5e                   	pop    %esi
  801e01:	5f                   	pop    %edi
  801e02:	5d                   	pop    %ebp
  801e03:	c3                   	ret    

00801e04 <ipc_recv>:
//   If 'pg' is null, pass sys_ipc_recv a value that it will understand
//   as meaning "no page".  (Zero is not the right value, since that's
//   a perfectly valid place to map a page.)
int32_t
ipc_recv(envid_t *from_env_store, void *pg, int *perm_store)
{
  801e04:	55                   	push   %ebp
  801e05:	89 e5                	mov    %esp,%ebp
  801e07:	83 ec 28             	sub    $0x28,%esp
  801e0a:	89 5d f4             	mov    %ebx,-0xc(%ebp)
  801e0d:	89 75 f8             	mov    %esi,-0x8(%ebp)
  801e10:	89 7d fc             	mov    %edi,-0x4(%ebp)
  801e13:	8b 75 08             	mov    0x8(%ebp),%esi
  801e16:	8b 45 0c             	mov    0xc(%ebp),%eax
  801e19:	8b 7d 10             	mov    0x10(%ebp),%edi
	// LAB 4: Your code here.
	int r;
	if(!pg)
  801e1c:	85 c0                	test   %eax,%eax
  801e1e:	ba 00 00 c0 ee       	mov    $0xeec00000,%edx
  801e23:	0f 44 c2             	cmove  %edx,%eax
		pg = (void*)UTOP;

	if((r = sys_ipc_recv(pg)) < 0)
  801e26:	89 04 24             	mov    %eax,(%esp)
  801e29:	e8 b7 f7 ff ff       	call   8015e5 <sys_ipc_recv>
  801e2e:	89 c3                	mov    %eax,%ebx
  801e30:	85 c0                	test   %eax,%eax
  801e32:	79 2a                	jns    801e5e <ipc_recv+0x5a>
	{
		cprintf("recv wrong %e %x\n",r,r);
  801e34:	89 44 24 08          	mov    %eax,0x8(%esp)
  801e38:	89 44 24 04          	mov    %eax,0x4(%esp)
  801e3c:	c7 04 24 f0 27 81 00 	movl   $0x8127f0,(%esp)
  801e43:	e8 85 eb ff ff       	call   8009cd <cprintf>
		if(from_env_store != NULL)
  801e48:	85 f6                	test   %esi,%esi
  801e4a:	74 06                	je     801e52 <ipc_recv+0x4e>
			*from_env_store = 0;
  801e4c:	c7 06 00 00 00 00    	movl   $0x0,(%esi)
		if(perm_store != NULL)
  801e52:	85 ff                	test   %edi,%edi
  801e54:	74 2c                	je     801e82 <ipc_recv+0x7e>
			*perm_store = 0;
  801e56:	c7 07 00 00 00 00    	movl   $0x0,(%edi)
  801e5c:	eb 24                	jmp    801e82 <ipc_recv+0x7e>
		return r;
	}
	if(from_env_store != NULL)
  801e5e:	85 f6                	test   %esi,%esi
  801e60:	74 0a                	je     801e6c <ipc_recv+0x68>
		*from_env_store = thisenv->env_ipc_from;
  801e62:	a1 74 c2 b3 00       	mov    0xb3c274,%eax
  801e67:	8b 40 74             	mov    0x74(%eax),%eax
  801e6a:	89 06                	mov    %eax,(%esi)
	if(perm_store != NULL)
  801e6c:	85 ff                	test   %edi,%edi
  801e6e:	74 0a                	je     801e7a <ipc_recv+0x76>
		*perm_store = thisenv->env_ipc_perm;
  801e70:	a1 74 c2 b3 00       	mov    0xb3c274,%eax
  801e75:	8b 40 78             	mov    0x78(%eax),%eax
  801e78:	89 07                	mov    %eax,(%edi)
	//panic("ipc_recv not implemented");
	return thisenv->env_ipc_value;
  801e7a:	a1 74 c2 b3 00       	mov    0xb3c274,%eax
  801e7f:	8b 58 70             	mov    0x70(%eax),%ebx
}
  801e82:	89 d8                	mov    %ebx,%eax
  801e84:	8b 5d f4             	mov    -0xc(%ebp),%ebx
  801e87:	8b 75 f8             	mov    -0x8(%ebp),%esi
  801e8a:	8b 7d fc             	mov    -0x4(%ebp),%edi
  801e8d:	89 ec                	mov    %ebp,%esp
  801e8f:	5d                   	pop    %ebp
  801e90:	c3                   	ret    
	...

00801ea0 <fd2num>:
// File descriptor manipulators
// --------------------------------------------------------------

int
fd2num(struct Fd *fd)
{
  801ea0:	55                   	push   %ebp
  801ea1:	89 e5                	mov    %esp,%ebp
  801ea3:	8b 45 08             	mov    0x8(%ebp),%eax
  801ea6:	05 00 00 00 30       	add    $0x30000000,%eax
  801eab:	c1 e8 0c             	shr    $0xc,%eax
	return ((uintptr_t) fd - FDTABLE) / PGSIZE;
}
  801eae:	5d                   	pop    %ebp
  801eaf:	c3                   	ret    

00801eb0 <fd2data>:

char*
fd2data(struct Fd *fd)
{
  801eb0:	55                   	push   %ebp
  801eb1:	89 e5                	mov    %esp,%ebp
  801eb3:	83 ec 04             	sub    $0x4,%esp
	return INDEX2DATA(fd2num(fd));
  801eb6:	8b 45 08             	mov    0x8(%ebp),%eax
  801eb9:	89 04 24             	mov    %eax,(%esp)
  801ebc:	e8 df ff ff ff       	call   801ea0 <fd2num>
  801ec1:	05 20 00 0d 00       	add    $0xd0020,%eax
  801ec6:	c1 e0 0c             	shl    $0xc,%eax
}
  801ec9:	c9                   	leave  
  801eca:	c3                   	ret    

00801ecb <fd_alloc>:
// Returns 0 on success, < 0 on error.  Errors are:
//	-E_MAX_FD: no more file descriptors
// On error, *fd_store is set to 0.
int
fd_alloc(struct Fd **fd_store)
{
  801ecb:	55                   	push   %ebp
  801ecc:	89 e5                	mov    %esp,%ebp
  801ece:	57                   	push   %edi
  801ecf:	56                   	push   %esi
  801ed0:	53                   	push   %ebx
  801ed1:	8b 7d 08             	mov    0x8(%ebp),%edi
	int i;
	struct Fd *fd;

	for (i = 0; i < MAXFD; i++) {
		fd = INDEX2FD(i);
		if ((vpd[PDX(fd)] & PTE_P) == 0 || (vpt[PGNUM(fd)] & PTE_P) == 0) {
  801ed4:	a1 00 dd 7b ef       	mov    0xef7bdd00,%eax
  801ed9:	a8 01                	test   $0x1,%al
  801edb:	74 36                	je     801f13 <fd_alloc+0x48>
  801edd:	a1 00 00 74 ef       	mov    0xef740000,%eax
  801ee2:	a8 01                	test   $0x1,%al
  801ee4:	74 2d                	je     801f13 <fd_alloc+0x48>
  801ee6:	b8 00 10 00 d0       	mov    $0xd0001000,%eax
  801eeb:	b9 00 d0 7b ef       	mov    $0xef7bd000,%ecx
  801ef0:	be 00 00 40 ef       	mov    $0xef400000,%esi
  801ef5:	89 c3                	mov    %eax,%ebx
  801ef7:	89 c2                	mov    %eax,%edx
  801ef9:	c1 ea 16             	shr    $0x16,%edx
  801efc:	8b 14 91             	mov    (%ecx,%edx,4),%edx
  801eff:	f6 c2 01             	test   $0x1,%dl
  801f02:	74 14                	je     801f18 <fd_alloc+0x4d>
  801f04:	89 c2                	mov    %eax,%edx
  801f06:	c1 ea 0c             	shr    $0xc,%edx
  801f09:	8b 14 96             	mov    (%esi,%edx,4),%edx
  801f0c:	f6 c2 01             	test   $0x1,%dl
  801f0f:	75 10                	jne    801f21 <fd_alloc+0x56>
  801f11:	eb 05                	jmp    801f18 <fd_alloc+0x4d>
  801f13:	bb 00 00 00 d0       	mov    $0xd0000000,%ebx
			*fd_store = fd;
  801f18:	89 1f                	mov    %ebx,(%edi)
  801f1a:	b8 00 00 00 00       	mov    $0x0,%eax
			return 0;
  801f1f:	eb 17                	jmp    801f38 <fd_alloc+0x6d>
  801f21:	05 00 10 00 00       	add    $0x1000,%eax
fd_alloc(struct Fd **fd_store)
{
	int i;
	struct Fd *fd;

	for (i = 0; i < MAXFD; i++) {
  801f26:	3d 00 00 02 d0       	cmp    $0xd0020000,%eax
  801f2b:	75 c8                	jne    801ef5 <fd_alloc+0x2a>
		if ((vpd[PDX(fd)] & PTE_P) == 0 || (vpt[PGNUM(fd)] & PTE_P) == 0) {
			*fd_store = fd;
			return 0;
		}
	}
	*fd_store = 0;
  801f2d:	c7 07 00 00 00 00    	movl   $0x0,(%edi)
  801f33:	b8 f6 ff ff ff       	mov    $0xfffffff6,%eax
	return -E_MAX_OPEN;
}
  801f38:	5b                   	pop    %ebx
  801f39:	5e                   	pop    %esi
  801f3a:	5f                   	pop    %edi
  801f3b:	5d                   	pop    %ebp
  801f3c:	c3                   	ret    

00801f3d <fd_lookup>:
// Returns 0 on success (the page is in range and mapped), < 0 on error.
// Errors are:
//	-E_INVAL: fdnum was either not in range or not mapped.
int
fd_lookup(int fdnum, struct Fd **fd_store)
{
  801f3d:	55                   	push   %ebp
  801f3e:	89 e5                	mov    %esp,%ebp
	struct Fd *fd;

	if (fdnum < 0 || fdnum >= MAXFD) {
  801f40:	8b 45 08             	mov    0x8(%ebp),%eax
  801f43:	83 f8 1f             	cmp    $0x1f,%eax
  801f46:	77 36                	ja     801f7e <fd_lookup+0x41>
		if (debug)
			cprintf("[%08x] bad fd %d\n", thisenv->env_id, fd);
		return -E_INVAL;
	}
	fd = INDEX2FD(fdnum);
  801f48:	05 00 00 0d 00       	add    $0xd0000,%eax
  801f4d:	c1 e0 0c             	shl    $0xc,%eax
	if (!(vpd[PDX(fd)] & PTE_P) || !(vpt[PGNUM(fd)] & PTE_P)) {
  801f50:	89 c2                	mov    %eax,%edx
  801f52:	c1 ea 16             	shr    $0x16,%edx
  801f55:	8b 14 95 00 d0 7b ef 	mov    -0x10843000(,%edx,4),%edx
  801f5c:	f6 c2 01             	test   $0x1,%dl
  801f5f:	74 1d                	je     801f7e <fd_lookup+0x41>
  801f61:	89 c2                	mov    %eax,%edx
  801f63:	c1 ea 0c             	shr    $0xc,%edx
  801f66:	8b 14 95 00 00 40 ef 	mov    -0x10c00000(,%edx,4),%edx
  801f6d:	f6 c2 01             	test   $0x1,%dl
  801f70:	74 0c                	je     801f7e <fd_lookup+0x41>
		if (debug)
			cprintf("[%08x] closed fd %d\n", thisenv->env_id, fd);
		return -E_INVAL;
	}
	*fd_store = fd;
  801f72:	8b 55 0c             	mov    0xc(%ebp),%edx
  801f75:	89 02                	mov    %eax,(%edx)
  801f77:	b8 00 00 00 00       	mov    $0x0,%eax
	return 0;
  801f7c:	eb 05                	jmp    801f83 <fd_lookup+0x46>
  801f7e:	b8 fd ff ff ff       	mov    $0xfffffffd,%eax
}
  801f83:	5d                   	pop    %ebp
  801f84:	c3                   	ret    

00801f85 <seek>:
	return (*dev->dev_write)(fd, buf, n);
}

int
seek(int fdnum, off_t offset)
{
  801f85:	55                   	push   %ebp
  801f86:	89 e5                	mov    %esp,%ebp
  801f88:	83 ec 18             	sub    $0x18,%esp
	int r;
	struct Fd *fd;

	if ((r = fd_lookup(fdnum, &fd)) < 0)
  801f8b:	8d 45 fc             	lea    -0x4(%ebp),%eax
  801f8e:	89 44 24 04          	mov    %eax,0x4(%esp)
  801f92:	8b 45 08             	mov    0x8(%ebp),%eax
  801f95:	89 04 24             	mov    %eax,(%esp)
  801f98:	e8 a0 ff ff ff       	call   801f3d <fd_lookup>
  801f9d:	85 c0                	test   %eax,%eax
  801f9f:	78 0e                	js     801faf <seek+0x2a>
		return r;
	fd->fd_offset = offset;
  801fa1:	8b 45 fc             	mov    -0x4(%ebp),%eax
  801fa4:	8b 55 0c             	mov    0xc(%ebp),%edx
  801fa7:	89 50 04             	mov    %edx,0x4(%eax)
  801faa:	b8 00 00 00 00       	mov    $0x0,%eax
	return 0;
}
  801faf:	c9                   	leave  
  801fb0:	c3                   	ret    

00801fb1 <dev_lookup>:
	0
};

int
dev_lookup(int dev_id, struct Dev **dev)
{
  801fb1:	55                   	push   %ebp
  801fb2:	89 e5                	mov    %esp,%ebp
  801fb4:	56                   	push   %esi
  801fb5:	53                   	push   %ebx
  801fb6:	83 ec 10             	sub    $0x10,%esp
  801fb9:	8b 4d 08             	mov    0x8(%ebp),%ecx
  801fbc:	8b 5d 0c             	mov    0xc(%ebp),%ebx
	int i;
	for (i = 0; devtab[i]; i++)
		if (devtab[i]->dev_id == dev_id) {
			*dev = devtab[i];
			return 0;
  801fbf:	ba 00 00 00 00       	mov    $0x0,%edx
int
dev_lookup(int dev_id, struct Dev **dev)
{
	int i;
	for (i = 0; devtab[i]; i++)
		if (devtab[i]->dev_id == dev_id) {
  801fc4:	b8 04 50 81 00       	mov    $0x815004,%eax
  801fc9:	39 0d 04 50 81 00    	cmp    %ecx,0x815004
  801fcf:	75 11                	jne    801fe2 <dev_lookup+0x31>
  801fd1:	eb 04                	jmp    801fd7 <dev_lookup+0x26>
  801fd3:	39 08                	cmp    %ecx,(%eax)
  801fd5:	75 10                	jne    801fe7 <dev_lookup+0x36>
			*dev = devtab[i];
  801fd7:	89 03                	mov    %eax,(%ebx)
  801fd9:	b8 00 00 00 00       	mov    $0x0,%eax
			return 0;
  801fde:	66 90                	xchg   %ax,%ax
  801fe0:	eb 36                	jmp    802018 <dev_lookup+0x67>

int
dev_lookup(int dev_id, struct Dev **dev)
{
	int i;
	for (i = 0; devtab[i]; i++)
  801fe2:	be 80 28 81 00       	mov    $0x812880,%esi
  801fe7:	83 c2 01             	add    $0x1,%edx
  801fea:	8b 04 96             	mov    (%esi,%edx,4),%eax
  801fed:	85 c0                	test   %eax,%eax
  801fef:	75 e2                	jne    801fd3 <dev_lookup+0x22>
		if (devtab[i]->dev_id == dev_id) {
			*dev = devtab[i];
			return 0;
		}
	cprintf("[%08x] unknown device type %d\n", thisenv->env_id, dev_id);
  801ff1:	a1 74 c2 b3 00       	mov    0xb3c274,%eax
  801ff6:	8b 40 48             	mov    0x48(%eax),%eax
  801ff9:	89 4c 24 08          	mov    %ecx,0x8(%esp)
  801ffd:	89 44 24 04          	mov    %eax,0x4(%esp)
  802001:	c7 04 24 04 28 81 00 	movl   $0x812804,(%esp)
  802008:	e8 c0 e9 ff ff       	call   8009cd <cprintf>
	*dev = 0;
  80200d:	c7 03 00 00 00 00    	movl   $0x0,(%ebx)
  802013:	b8 fd ff ff ff       	mov    $0xfffffffd,%eax
	return -E_INVAL;
}
  802018:	83 c4 10             	add    $0x10,%esp
  80201b:	5b                   	pop    %ebx
  80201c:	5e                   	pop    %esi
  80201d:	5d                   	pop    %ebp
  80201e:	c3                   	ret    

0080201f <fstat>:
	return (*dev->dev_trunc)(fd, newsize);
}

int
fstat(int fdnum, struct Stat *stat)
{
  80201f:	55                   	push   %ebp
  802020:	89 e5                	mov    %esp,%ebp
  802022:	53                   	push   %ebx
  802023:	83 ec 24             	sub    $0x24,%esp
  802026:	8b 5d 0c             	mov    0xc(%ebp),%ebx
	int r;
	struct Dev *dev;
	struct Fd *fd;

	if ((r = fd_lookup(fdnum, &fd)) < 0
  802029:	8d 45 f0             	lea    -0x10(%ebp),%eax
  80202c:	89 44 24 04          	mov    %eax,0x4(%esp)
  802030:	8b 45 08             	mov    0x8(%ebp),%eax
  802033:	89 04 24             	mov    %eax,(%esp)
  802036:	e8 02 ff ff ff       	call   801f3d <fd_lookup>
  80203b:	85 c0                	test   %eax,%eax
  80203d:	78 53                	js     802092 <fstat+0x73>
	    || (r = dev_lookup(fd->fd_dev_id, &dev)) < 0)
  80203f:	8d 45 f4             	lea    -0xc(%ebp),%eax
  802042:	89 44 24 04          	mov    %eax,0x4(%esp)
  802046:	8b 45 f0             	mov    -0x10(%ebp),%eax
  802049:	8b 00                	mov    (%eax),%eax
  80204b:	89 04 24             	mov    %eax,(%esp)
  80204e:	e8 5e ff ff ff       	call   801fb1 <dev_lookup>
{
	int r;
	struct Dev *dev;
	struct Fd *fd;

	if ((r = fd_lookup(fdnum, &fd)) < 0
  802053:	85 c0                	test   %eax,%eax
  802055:	78 3b                	js     802092 <fstat+0x73>
	    || (r = dev_lookup(fd->fd_dev_id, &dev)) < 0)
		return r;
	if (!dev->dev_stat)
  802057:	b8 f1 ff ff ff       	mov    $0xfffffff1,%eax
  80205c:	8b 55 f4             	mov    -0xc(%ebp),%edx
  80205f:	83 7a 14 00          	cmpl   $0x0,0x14(%edx)
  802063:	74 2d                	je     802092 <fstat+0x73>
		return -E_NOT_SUPP;
	stat->st_name[0] = 0;
  802065:	c6 03 00             	movb   $0x0,(%ebx)
	stat->st_size = 0;
  802068:	c7 83 80 00 00 00 00 	movl   $0x0,0x80(%ebx)
  80206f:	00 00 00 
	stat->st_isdir = 0;
  802072:	c7 83 84 00 00 00 00 	movl   $0x0,0x84(%ebx)
  802079:	00 00 00 
	stat->st_dev = dev;
  80207c:	8b 45 f4             	mov    -0xc(%ebp),%eax
  80207f:	89 83 88 00 00 00    	mov    %eax,0x88(%ebx)
	return (*dev->dev_stat)(fd, stat);
  802085:	89 5c 24 04          	mov    %ebx,0x4(%esp)
  802089:	8b 55 f0             	mov    -0x10(%ebp),%edx
  80208c:	89 14 24             	mov    %edx,(%esp)
  80208f:	ff 50 14             	call   *0x14(%eax)
}
  802092:	83 c4 24             	add    $0x24,%esp
  802095:	5b                   	pop    %ebx
  802096:	5d                   	pop    %ebp
  802097:	c3                   	ret    

00802098 <ftruncate>:
	return 0;
}

int
ftruncate(int fdnum, off_t newsize)
{
  802098:	55                   	push   %ebp
  802099:	89 e5                	mov    %esp,%ebp
  80209b:	53                   	push   %ebx
  80209c:	83 ec 24             	sub    $0x24,%esp
  80209f:	8b 5d 08             	mov    0x8(%ebp),%ebx
	int r;
	struct Dev *dev;
	struct Fd *fd;
	if ((r = fd_lookup(fdnum, &fd)) < 0
  8020a2:	8d 45 f0             	lea    -0x10(%ebp),%eax
  8020a5:	89 44 24 04          	mov    %eax,0x4(%esp)
  8020a9:	89 1c 24             	mov    %ebx,(%esp)
  8020ac:	e8 8c fe ff ff       	call   801f3d <fd_lookup>
  8020b1:	85 c0                	test   %eax,%eax
  8020b3:	78 5f                	js     802114 <ftruncate+0x7c>
	    || (r = dev_lookup(fd->fd_dev_id, &dev)) < 0)
  8020b5:	8d 45 f4             	lea    -0xc(%ebp),%eax
  8020b8:	89 44 24 04          	mov    %eax,0x4(%esp)
  8020bc:	8b 45 f0             	mov    -0x10(%ebp),%eax
  8020bf:	8b 00                	mov    (%eax),%eax
  8020c1:	89 04 24             	mov    %eax,(%esp)
  8020c4:	e8 e8 fe ff ff       	call   801fb1 <dev_lookup>
ftruncate(int fdnum, off_t newsize)
{
	int r;
	struct Dev *dev;
	struct Fd *fd;
	if ((r = fd_lookup(fdnum, &fd)) < 0
  8020c9:	85 c0                	test   %eax,%eax
  8020cb:	78 47                	js     802114 <ftruncate+0x7c>
	    || (r = dev_lookup(fd->fd_dev_id, &dev)) < 0)
		return r;
	if ((fd->fd_omode & O_ACCMODE) == O_RDONLY) {
  8020cd:	8b 55 f0             	mov    -0x10(%ebp),%edx
  8020d0:	f6 42 08 03          	testb  $0x3,0x8(%edx)
  8020d4:	75 23                	jne    8020f9 <ftruncate+0x61>
		cprintf("[%08x] ftruncate %d -- bad mode\n",
			thisenv->env_id, fdnum);
  8020d6:	a1 74 c2 b3 00       	mov    0xb3c274,%eax
	struct Fd *fd;
	if ((r = fd_lookup(fdnum, &fd)) < 0
	    || (r = dev_lookup(fd->fd_dev_id, &dev)) < 0)
		return r;
	if ((fd->fd_omode & O_ACCMODE) == O_RDONLY) {
		cprintf("[%08x] ftruncate %d -- bad mode\n",
  8020db:	8b 40 48             	mov    0x48(%eax),%eax
  8020de:	89 5c 24 08          	mov    %ebx,0x8(%esp)
  8020e2:	89 44 24 04          	mov    %eax,0x4(%esp)
  8020e6:	c7 04 24 24 28 81 00 	movl   $0x812824,(%esp)
  8020ed:	e8 db e8 ff ff       	call   8009cd <cprintf>
  8020f2:	b8 fd ff ff ff       	mov    $0xfffffffd,%eax
			thisenv->env_id, fdnum);
		return -E_INVAL;
  8020f7:	eb 1b                	jmp    802114 <ftruncate+0x7c>
	}
	if (!dev->dev_trunc)
  8020f9:	8b 45 f4             	mov    -0xc(%ebp),%eax
  8020fc:	8b 48 18             	mov    0x18(%eax),%ecx
  8020ff:	b8 f1 ff ff ff       	mov    $0xfffffff1,%eax
  802104:	85 c9                	test   %ecx,%ecx
  802106:	74 0c                	je     802114 <ftruncate+0x7c>
		return -E_NOT_SUPP;
	return (*dev->dev_trunc)(fd, newsize);
  802108:	8b 45 0c             	mov    0xc(%ebp),%eax
  80210b:	89 44 24 04          	mov    %eax,0x4(%esp)
  80210f:	89 14 24             	mov    %edx,(%esp)
  802112:	ff d1                	call   *%ecx
}
  802114:	83 c4 24             	add    $0x24,%esp
  802117:	5b                   	pop    %ebx
  802118:	5d                   	pop    %ebp
  802119:	c3                   	ret    

0080211a <write>:
	return tot;
}

ssize_t
write(int fdnum, const void *buf, size_t n)
{
  80211a:	55                   	push   %ebp
  80211b:	89 e5                	mov    %esp,%ebp
  80211d:	53                   	push   %ebx
  80211e:	83 ec 24             	sub    $0x24,%esp
  802121:	8b 5d 08             	mov    0x8(%ebp),%ebx
	int r;
	struct Dev *dev;
	struct Fd *fd;

	if ((r = fd_lookup(fdnum, &fd)) < 0
  802124:	8d 45 f0             	lea    -0x10(%ebp),%eax
  802127:	89 44 24 04          	mov    %eax,0x4(%esp)
  80212b:	89 1c 24             	mov    %ebx,(%esp)
  80212e:	e8 0a fe ff ff       	call   801f3d <fd_lookup>
  802133:	85 c0                	test   %eax,%eax
  802135:	78 66                	js     80219d <write+0x83>
	    || (r = dev_lookup(fd->fd_dev_id, &dev)) < 0)
  802137:	8d 45 f4             	lea    -0xc(%ebp),%eax
  80213a:	89 44 24 04          	mov    %eax,0x4(%esp)
  80213e:	8b 45 f0             	mov    -0x10(%ebp),%eax
  802141:	8b 00                	mov    (%eax),%eax
  802143:	89 04 24             	mov    %eax,(%esp)
  802146:	e8 66 fe ff ff       	call   801fb1 <dev_lookup>
{
	int r;
	struct Dev *dev;
	struct Fd *fd;

	if ((r = fd_lookup(fdnum, &fd)) < 0
  80214b:	85 c0                	test   %eax,%eax
  80214d:	78 4e                	js     80219d <write+0x83>
	    || (r = dev_lookup(fd->fd_dev_id, &dev)) < 0)
		return r;
	if ((fd->fd_omode & O_ACCMODE) == O_RDONLY) {
  80214f:	8b 55 f0             	mov    -0x10(%ebp),%edx
  802152:	f6 42 08 03          	testb  $0x3,0x8(%edx)
  802156:	75 23                	jne    80217b <write+0x61>
		cprintf("[%08x] write %d -- bad mode\n", thisenv->env_id, fdnum);
  802158:	a1 74 c2 b3 00       	mov    0xb3c274,%eax
  80215d:	8b 40 48             	mov    0x48(%eax),%eax
  802160:	89 5c 24 08          	mov    %ebx,0x8(%esp)
  802164:	89 44 24 04          	mov    %eax,0x4(%esp)
  802168:	c7 04 24 45 28 81 00 	movl   $0x812845,(%esp)
  80216f:	e8 59 e8 ff ff       	call   8009cd <cprintf>
  802174:	b8 fd ff ff ff       	mov    $0xfffffffd,%eax
		return -E_INVAL;
  802179:	eb 22                	jmp    80219d <write+0x83>
	}
	if (debug)
		cprintf("write %d %p %d via dev %s\n",
			fdnum, buf, n, dev->dev_name);
	if (!dev->dev_write)
  80217b:	8b 45 f4             	mov    -0xc(%ebp),%eax
  80217e:	8b 48 0c             	mov    0xc(%eax),%ecx
  802181:	b8 f1 ff ff ff       	mov    $0xfffffff1,%eax
  802186:	85 c9                	test   %ecx,%ecx
  802188:	74 13                	je     80219d <write+0x83>
		return -E_NOT_SUPP;
	return (*dev->dev_write)(fd, buf, n);
  80218a:	8b 45 10             	mov    0x10(%ebp),%eax
  80218d:	89 44 24 08          	mov    %eax,0x8(%esp)
  802191:	8b 45 0c             	mov    0xc(%ebp),%eax
  802194:	89 44 24 04          	mov    %eax,0x4(%esp)
  802198:	89 14 24             	mov    %edx,(%esp)
  80219b:	ff d1                	call   *%ecx
}
  80219d:	83 c4 24             	add    $0x24,%esp
  8021a0:	5b                   	pop    %ebx
  8021a1:	5d                   	pop    %ebp
  8021a2:	c3                   	ret    

008021a3 <read>:
	return r;
}

ssize_t
read(int fdnum, void *buf, size_t n)
{
  8021a3:	55                   	push   %ebp
  8021a4:	89 e5                	mov    %esp,%ebp
  8021a6:	53                   	push   %ebx
  8021a7:	83 ec 24             	sub    $0x24,%esp
  8021aa:	8b 5d 08             	mov    0x8(%ebp),%ebx
	int r;
	struct Dev *dev;
	struct Fd *fd;

	if ((r = fd_lookup(fdnum, &fd)) < 0
  8021ad:	8d 45 f0             	lea    -0x10(%ebp),%eax
  8021b0:	89 44 24 04          	mov    %eax,0x4(%esp)
  8021b4:	89 1c 24             	mov    %ebx,(%esp)
  8021b7:	e8 81 fd ff ff       	call   801f3d <fd_lookup>
  8021bc:	85 c0                	test   %eax,%eax
  8021be:	78 6b                	js     80222b <read+0x88>
	    || (r = dev_lookup(fd->fd_dev_id, &dev)) < 0)
  8021c0:	8d 45 f4             	lea    -0xc(%ebp),%eax
  8021c3:	89 44 24 04          	mov    %eax,0x4(%esp)
  8021c7:	8b 45 f0             	mov    -0x10(%ebp),%eax
  8021ca:	8b 00                	mov    (%eax),%eax
  8021cc:	89 04 24             	mov    %eax,(%esp)
  8021cf:	e8 dd fd ff ff       	call   801fb1 <dev_lookup>
{
	int r;
	struct Dev *dev;
	struct Fd *fd;

	if ((r = fd_lookup(fdnum, &fd)) < 0
  8021d4:	85 c0                	test   %eax,%eax
  8021d6:	78 53                	js     80222b <read+0x88>
	    || (r = dev_lookup(fd->fd_dev_id, &dev)) < 0)
		return r;
	if ((fd->fd_omode & O_ACCMODE) == O_WRONLY) {
  8021d8:	8b 55 f0             	mov    -0x10(%ebp),%edx
  8021db:	8b 42 08             	mov    0x8(%edx),%eax
  8021de:	83 e0 03             	and    $0x3,%eax
  8021e1:	83 f8 01             	cmp    $0x1,%eax
  8021e4:	75 23                	jne    802209 <read+0x66>
		cprintf("[%08x] read %d -- bad mode\n", thisenv->env_id, fdnum);
  8021e6:	a1 74 c2 b3 00       	mov    0xb3c274,%eax
  8021eb:	8b 40 48             	mov    0x48(%eax),%eax
  8021ee:	89 5c 24 08          	mov    %ebx,0x8(%esp)
  8021f2:	89 44 24 04          	mov    %eax,0x4(%esp)
  8021f6:	c7 04 24 62 28 81 00 	movl   $0x812862,(%esp)
  8021fd:	e8 cb e7 ff ff       	call   8009cd <cprintf>
  802202:	b8 fd ff ff ff       	mov    $0xfffffffd,%eax
		return -E_INVAL;
  802207:	eb 22                	jmp    80222b <read+0x88>
	}
	if (!dev->dev_read)
  802209:	8b 45 f4             	mov    -0xc(%ebp),%eax
  80220c:	8b 48 08             	mov    0x8(%eax),%ecx
  80220f:	b8 f1 ff ff ff       	mov    $0xfffffff1,%eax
  802214:	85 c9                	test   %ecx,%ecx
  802216:	74 13                	je     80222b <read+0x88>
		return -E_NOT_SUPP;
	return (*dev->dev_read)(fd, buf, n);
  802218:	8b 45 10             	mov    0x10(%ebp),%eax
  80221b:	89 44 24 08          	mov    %eax,0x8(%esp)
  80221f:	8b 45 0c             	mov    0xc(%ebp),%eax
  802222:	89 44 24 04          	mov    %eax,0x4(%esp)
  802226:	89 14 24             	mov    %edx,(%esp)
  802229:	ff d1                	call   *%ecx
}
  80222b:	83 c4 24             	add    $0x24,%esp
  80222e:	5b                   	pop    %ebx
  80222f:	5d                   	pop    %ebp
  802230:	c3                   	ret    

00802231 <readn>:

ssize_t
readn(int fdnum, void *buf, size_t n)
{
  802231:	55                   	push   %ebp
  802232:	89 e5                	mov    %esp,%ebp
  802234:	57                   	push   %edi
  802235:	56                   	push   %esi
  802236:	53                   	push   %ebx
  802237:	83 ec 1c             	sub    $0x1c,%esp
  80223a:	8b 7d 08             	mov    0x8(%ebp),%edi
  80223d:	8b 75 10             	mov    0x10(%ebp),%esi
	int m, tot;

	for (tot = 0; tot < n; tot += m) {
  802240:	ba 00 00 00 00       	mov    $0x0,%edx
  802245:	bb 00 00 00 00       	mov    $0x0,%ebx
  80224a:	b8 00 00 00 00       	mov    $0x0,%eax
  80224f:	85 f6                	test   %esi,%esi
  802251:	74 29                	je     80227c <readn+0x4b>
		m = read(fdnum, (char*)buf + tot, n - tot);
  802253:	89 f0                	mov    %esi,%eax
  802255:	29 d0                	sub    %edx,%eax
  802257:	89 44 24 08          	mov    %eax,0x8(%esp)
  80225b:	03 55 0c             	add    0xc(%ebp),%edx
  80225e:	89 54 24 04          	mov    %edx,0x4(%esp)
  802262:	89 3c 24             	mov    %edi,(%esp)
  802265:	e8 39 ff ff ff       	call   8021a3 <read>
		if (m < 0)
  80226a:	85 c0                	test   %eax,%eax
  80226c:	78 0e                	js     80227c <readn+0x4b>
			return m;
		if (m == 0)
  80226e:	85 c0                	test   %eax,%eax
  802270:	74 08                	je     80227a <readn+0x49>
ssize_t
readn(int fdnum, void *buf, size_t n)
{
	int m, tot;

	for (tot = 0; tot < n; tot += m) {
  802272:	01 c3                	add    %eax,%ebx
  802274:	89 da                	mov    %ebx,%edx
  802276:	39 f3                	cmp    %esi,%ebx
  802278:	72 d9                	jb     802253 <readn+0x22>
  80227a:	89 d8                	mov    %ebx,%eax
			return m;
		if (m == 0)
			break;
	}
	return tot;
}
  80227c:	83 c4 1c             	add    $0x1c,%esp
  80227f:	5b                   	pop    %ebx
  802280:	5e                   	pop    %esi
  802281:	5f                   	pop    %edi
  802282:	5d                   	pop    %ebp
  802283:	c3                   	ret    

00802284 <fd_close>:
// If 'must_exist' is 1, then fd_close returns -E_INVAL when passed a
// closed or nonexistent file descriptor.
// Returns 0 on success, < 0 on error.
int
fd_close(struct Fd *fd, bool must_exist)
{
  802284:	55                   	push   %ebp
  802285:	89 e5                	mov    %esp,%ebp
  802287:	83 ec 28             	sub    $0x28,%esp
  80228a:	89 5d f8             	mov    %ebx,-0x8(%ebp)
  80228d:	89 75 fc             	mov    %esi,-0x4(%ebp)
  802290:	8b 75 08             	mov    0x8(%ebp),%esi
	struct Fd *fd2;
	struct Dev *dev;
	int r;
	if ((r = fd_lookup(fd2num(fd), &fd2)) < 0
  802293:	89 34 24             	mov    %esi,(%esp)
  802296:	e8 05 fc ff ff       	call   801ea0 <fd2num>
  80229b:	8d 55 f4             	lea    -0xc(%ebp),%edx
  80229e:	89 54 24 04          	mov    %edx,0x4(%esp)
  8022a2:	89 04 24             	mov    %eax,(%esp)
  8022a5:	e8 93 fc ff ff       	call   801f3d <fd_lookup>
  8022aa:	89 c3                	mov    %eax,%ebx
  8022ac:	85 c0                	test   %eax,%eax
  8022ae:	78 05                	js     8022b5 <fd_close+0x31>
  8022b0:	3b 75 f4             	cmp    -0xc(%ebp),%esi
  8022b3:	74 0e                	je     8022c3 <fd_close+0x3f>
	    || fd != fd2)
		return (must_exist ? r : 0);
  8022b5:	83 7d 0c 00          	cmpl   $0x0,0xc(%ebp)
  8022b9:	b8 00 00 00 00       	mov    $0x0,%eax
  8022be:	0f 44 d8             	cmove  %eax,%ebx
  8022c1:	eb 3d                	jmp    802300 <fd_close+0x7c>
	if ((r = dev_lookup(fd->fd_dev_id, &dev)) >= 0) {
  8022c3:	8d 45 f0             	lea    -0x10(%ebp),%eax
  8022c6:	89 44 24 04          	mov    %eax,0x4(%esp)
  8022ca:	8b 06                	mov    (%esi),%eax
  8022cc:	89 04 24             	mov    %eax,(%esp)
  8022cf:	e8 dd fc ff ff       	call   801fb1 <dev_lookup>
  8022d4:	89 c3                	mov    %eax,%ebx
  8022d6:	85 c0                	test   %eax,%eax
  8022d8:	78 16                	js     8022f0 <fd_close+0x6c>
		if (dev->dev_close)
  8022da:	8b 45 f0             	mov    -0x10(%ebp),%eax
  8022dd:	8b 40 10             	mov    0x10(%eax),%eax
  8022e0:	bb 00 00 00 00       	mov    $0x0,%ebx
  8022e5:	85 c0                	test   %eax,%eax
  8022e7:	74 07                	je     8022f0 <fd_close+0x6c>
			r = (*dev->dev_close)(fd);
  8022e9:	89 34 24             	mov    %esi,(%esp)
  8022ec:	ff d0                	call   *%eax
  8022ee:	89 c3                	mov    %eax,%ebx
		else
			r = 0;
	}
	// Make sure fd is unmapped.  Might be a no-op if
	// (*dev->dev_close)(fd) already unmapped it.
	(void) sys_page_unmap(0, fd);
  8022f0:	89 74 24 04          	mov    %esi,0x4(%esp)
  8022f4:	c7 04 24 00 00 00 00 	movl   $0x0,(%esp)
  8022fb:	e8 fc f3 ff ff       	call   8016fc <sys_page_unmap>
	return r;
}
  802300:	89 d8                	mov    %ebx,%eax
  802302:	8b 5d f8             	mov    -0x8(%ebp),%ebx
  802305:	8b 75 fc             	mov    -0x4(%ebp),%esi
  802308:	89 ec                	mov    %ebp,%esp
  80230a:	5d                   	pop    %ebp
  80230b:	c3                   	ret    

0080230c <close>:
	return -E_INVAL;
}

int
close(int fdnum)
{
  80230c:	55                   	push   %ebp
  80230d:	89 e5                	mov    %esp,%ebp
  80230f:	83 ec 28             	sub    $0x28,%esp
	struct Fd *fd;
	int r;

	if ((r = fd_lookup(fdnum, &fd)) < 0)
  802312:	8d 45 f4             	lea    -0xc(%ebp),%eax
  802315:	89 44 24 04          	mov    %eax,0x4(%esp)
  802319:	8b 45 08             	mov    0x8(%ebp),%eax
  80231c:	89 04 24             	mov    %eax,(%esp)
  80231f:	e8 19 fc ff ff       	call   801f3d <fd_lookup>
  802324:	85 c0                	test   %eax,%eax
  802326:	78 13                	js     80233b <close+0x2f>
		return r;
	else
		return fd_close(fd, 1);
  802328:	c7 44 24 04 01 00 00 	movl   $0x1,0x4(%esp)
  80232f:	00 
  802330:	8b 45 f4             	mov    -0xc(%ebp),%eax
  802333:	89 04 24             	mov    %eax,(%esp)
  802336:	e8 49 ff ff ff       	call   802284 <fd_close>
}
  80233b:	c9                   	leave  
  80233c:	c3                   	ret    

0080233d <stat>:
	return (*dev->dev_stat)(fd, stat);
}

int
stat(const char *path, struct Stat *stat)
{
  80233d:	55                   	push   %ebp
  80233e:	89 e5                	mov    %esp,%ebp
  802340:	83 ec 18             	sub    $0x18,%esp
  802343:	89 5d f8             	mov    %ebx,-0x8(%ebp)
  802346:	89 75 fc             	mov    %esi,-0x4(%ebp)
	int fd, r;

	if ((fd = open(path, O_RDONLY)) < 0)
  802349:	c7 44 24 04 00 00 00 	movl   $0x0,0x4(%esp)
  802350:	00 
  802351:	8b 45 08             	mov    0x8(%ebp),%eax
  802354:	89 04 24             	mov    %eax,(%esp)
  802357:	e8 78 03 00 00       	call   8026d4 <open>
  80235c:	89 c3                	mov    %eax,%ebx
  80235e:	85 c0                	test   %eax,%eax
  802360:	78 1b                	js     80237d <stat+0x40>
		return fd;
	r = fstat(fd, stat);
  802362:	8b 45 0c             	mov    0xc(%ebp),%eax
  802365:	89 44 24 04          	mov    %eax,0x4(%esp)
  802369:	89 1c 24             	mov    %ebx,(%esp)
  80236c:	e8 ae fc ff ff       	call   80201f <fstat>
  802371:	89 c6                	mov    %eax,%esi
	close(fd);
  802373:	89 1c 24             	mov    %ebx,(%esp)
  802376:	e8 91 ff ff ff       	call   80230c <close>
  80237b:	89 f3                	mov    %esi,%ebx
	return r;
}
  80237d:	89 d8                	mov    %ebx,%eax
  80237f:	8b 5d f8             	mov    -0x8(%ebp),%ebx
  802382:	8b 75 fc             	mov    -0x4(%ebp),%esi
  802385:	89 ec                	mov    %ebp,%esp
  802387:	5d                   	pop    %ebp
  802388:	c3                   	ret    

00802389 <close_all>:
		return fd_close(fd, 1);
}

void
close_all(void)
{
  802389:	55                   	push   %ebp
  80238a:	89 e5                	mov    %esp,%ebp
  80238c:	53                   	push   %ebx
  80238d:	83 ec 14             	sub    $0x14,%esp
  802390:	bb 00 00 00 00       	mov    $0x0,%ebx
	int i;
	for (i = 0; i < MAXFD; i++)
		close(i);
  802395:	89 1c 24             	mov    %ebx,(%esp)
  802398:	e8 6f ff ff ff       	call   80230c <close>

void
close_all(void)
{
	int i;
	for (i = 0; i < MAXFD; i++)
  80239d:	83 c3 01             	add    $0x1,%ebx
  8023a0:	83 fb 20             	cmp    $0x20,%ebx
  8023a3:	75 f0                	jne    802395 <close_all+0xc>
		close(i);
}
  8023a5:	83 c4 14             	add    $0x14,%esp
  8023a8:	5b                   	pop    %ebx
  8023a9:	5d                   	pop    %ebp
  8023aa:	c3                   	ret    

008023ab <dup>:
// file and the file offset of the other.
// Closes any previously open file descriptor at 'newfdnum'.
// This is implemented using virtual memory tricks (of course!).
int
dup(int oldfdnum, int newfdnum)
{
  8023ab:	55                   	push   %ebp
  8023ac:	89 e5                	mov    %esp,%ebp
  8023ae:	83 ec 58             	sub    $0x58,%esp
  8023b1:	89 5d f4             	mov    %ebx,-0xc(%ebp)
  8023b4:	89 75 f8             	mov    %esi,-0x8(%ebp)
  8023b7:	89 7d fc             	mov    %edi,-0x4(%ebp)
  8023ba:	8b 7d 0c             	mov    0xc(%ebp),%edi
	int r;
	char *ova, *nva;
	pte_t pte;
	struct Fd *oldfd, *newfd;

	if ((r = fd_lookup(oldfdnum, &oldfd)) < 0)
  8023bd:	8d 45 e4             	lea    -0x1c(%ebp),%eax
  8023c0:	89 44 24 04          	mov    %eax,0x4(%esp)
  8023c4:	8b 45 08             	mov    0x8(%ebp),%eax
  8023c7:	89 04 24             	mov    %eax,(%esp)
  8023ca:	e8 6e fb ff ff       	call   801f3d <fd_lookup>
  8023cf:	89 c3                	mov    %eax,%ebx
  8023d1:	85 c0                	test   %eax,%eax
  8023d3:	0f 88 e0 00 00 00    	js     8024b9 <dup+0x10e>
		return r;
	close(newfdnum);
  8023d9:	89 3c 24             	mov    %edi,(%esp)
  8023dc:	e8 2b ff ff ff       	call   80230c <close>

	newfd = INDEX2FD(newfdnum);
  8023e1:	8d b7 00 00 0d 00    	lea    0xd0000(%edi),%esi
  8023e7:	c1 e6 0c             	shl    $0xc,%esi
	ova = fd2data(oldfd);
  8023ea:	8b 45 e4             	mov    -0x1c(%ebp),%eax
  8023ed:	89 04 24             	mov    %eax,(%esp)
  8023f0:	e8 bb fa ff ff       	call   801eb0 <fd2data>
  8023f5:	89 c3                	mov    %eax,%ebx
	nva = fd2data(newfd);
  8023f7:	89 34 24             	mov    %esi,(%esp)
  8023fa:	e8 b1 fa ff ff       	call   801eb0 <fd2data>
  8023ff:	89 45 d4             	mov    %eax,-0x2c(%ebp)

	if ((vpd[PDX(ova)] & PTE_P) && (vpt[PGNUM(ova)] & PTE_P))
  802402:	89 da                	mov    %ebx,%edx
  802404:	89 d8                	mov    %ebx,%eax
  802406:	c1 e8 16             	shr    $0x16,%eax
  802409:	8b 04 85 00 d0 7b ef 	mov    -0x10843000(,%eax,4),%eax
  802410:	a8 01                	test   $0x1,%al
  802412:	74 43                	je     802457 <dup+0xac>
  802414:	c1 ea 0c             	shr    $0xc,%edx
  802417:	8b 04 95 00 00 40 ef 	mov    -0x10c00000(,%edx,4),%eax
  80241e:	a8 01                	test   $0x1,%al
  802420:	74 35                	je     802457 <dup+0xac>
		if ((r = sys_page_map(0, ova, 0, nva, vpt[PGNUM(ova)] & PTE_SYSCALL)) < 0)
  802422:	8b 04 95 00 00 40 ef 	mov    -0x10c00000(,%edx,4),%eax
  802429:	25 07 0e 00 00       	and    $0xe07,%eax
  80242e:	89 44 24 10          	mov    %eax,0x10(%esp)
  802432:	8b 45 d4             	mov    -0x2c(%ebp),%eax
  802435:	89 44 24 0c          	mov    %eax,0xc(%esp)
  802439:	c7 44 24 08 00 00 00 	movl   $0x0,0x8(%esp)
  802440:	00 
  802441:	89 5c 24 04          	mov    %ebx,0x4(%esp)
  802445:	c7 04 24 00 00 00 00 	movl   $0x0,(%esp)
  80244c:	e8 e3 f2 ff ff       	call   801734 <sys_page_map>
  802451:	89 c3                	mov    %eax,%ebx
  802453:	85 c0                	test   %eax,%eax
  802455:	78 3f                	js     802496 <dup+0xeb>
			goto err;
	if ((r = sys_page_map(0, oldfd, 0, newfd, vpt[PGNUM(oldfd)] & PTE_SYSCALL)) < 0)
  802457:	8b 45 e4             	mov    -0x1c(%ebp),%eax
  80245a:	89 c2                	mov    %eax,%edx
  80245c:	c1 ea 0c             	shr    $0xc,%edx
  80245f:	8b 14 95 00 00 40 ef 	mov    -0x10c00000(,%edx,4),%edx
  802466:	81 e2 07 0e 00 00    	and    $0xe07,%edx
  80246c:	89 54 24 10          	mov    %edx,0x10(%esp)
  802470:	89 74 24 0c          	mov    %esi,0xc(%esp)
  802474:	c7 44 24 08 00 00 00 	movl   $0x0,0x8(%esp)
  80247b:	00 
  80247c:	89 44 24 04          	mov    %eax,0x4(%esp)
  802480:	c7 04 24 00 00 00 00 	movl   $0x0,(%esp)
  802487:	e8 a8 f2 ff ff       	call   801734 <sys_page_map>
  80248c:	89 c3                	mov    %eax,%ebx
  80248e:	85 c0                	test   %eax,%eax
  802490:	78 04                	js     802496 <dup+0xeb>
  802492:	89 fb                	mov    %edi,%ebx
  802494:	eb 23                	jmp    8024b9 <dup+0x10e>
		goto err;

	return newfdnum;

err:
	sys_page_unmap(0, newfd);
  802496:	89 74 24 04          	mov    %esi,0x4(%esp)
  80249a:	c7 04 24 00 00 00 00 	movl   $0x0,(%esp)
  8024a1:	e8 56 f2 ff ff       	call   8016fc <sys_page_unmap>
	sys_page_unmap(0, nva);
  8024a6:	8b 45 d4             	mov    -0x2c(%ebp),%eax
  8024a9:	89 44 24 04          	mov    %eax,0x4(%esp)
  8024ad:	c7 04 24 00 00 00 00 	movl   $0x0,(%esp)
  8024b4:	e8 43 f2 ff ff       	call   8016fc <sys_page_unmap>
	return r;
}
  8024b9:	89 d8                	mov    %ebx,%eax
  8024bb:	8b 5d f4             	mov    -0xc(%ebp),%ebx
  8024be:	8b 75 f8             	mov    -0x8(%ebp),%esi
  8024c1:	8b 7d fc             	mov    -0x4(%ebp),%edi
  8024c4:	89 ec                	mov    %ebp,%esp
  8024c6:	5d                   	pop    %ebp
  8024c7:	c3                   	ret    

008024c8 <fsipc>:
// type: request code, passed as the simple integer IPC value.
// dstva: virtual address at which to receive reply page, 0 if none.
// Returns result from the file server.
static int
fsipc(unsigned type, void *dstva)
{
  8024c8:	55                   	push   %ebp
  8024c9:	89 e5                	mov    %esp,%ebp
  8024cb:	83 ec 18             	sub    $0x18,%esp
  8024ce:	89 5d f8             	mov    %ebx,-0x8(%ebp)
  8024d1:	89 75 fc             	mov    %esi,-0x4(%ebp)
  8024d4:	89 c3                	mov    %eax,%ebx
  8024d6:	89 d6                	mov    %edx,%esi
	static envid_t fsenv;
	if (fsenv == 0)
  8024d8:	83 3d 90 60 81 00 00 	cmpl   $0x0,0x816090
  8024df:	75 11                	jne    8024f2 <fsipc+0x2a>
		fsenv = ipc_find_env(ENV_TYPE_FS);
  8024e1:	c7 04 24 02 00 00 00 	movl   $0x2,(%esp)
  8024e8:	e8 63 f8 ff ff       	call   801d50 <ipc_find_env>
  8024ed:	a3 90 60 81 00       	mov    %eax,0x816090
	static_assert(sizeof(fsipcbuf) == PGSIZE);

	if (debug)
		cprintf("[%08x] fsipc %d %08x\n", thisenv->env_id, type, *(uint32_t *)&fsipcbuf);

	ipc_send(fsenv, type, &fsipcbuf, PTE_P | PTE_W | PTE_U);
  8024f2:	c7 44 24 0c 07 00 00 	movl   $0x7,0xc(%esp)
  8024f9:	00 
  8024fa:	c7 44 24 08 00 d0 b3 	movl   $0xb3d000,0x8(%esp)
  802501:	00 
  802502:	89 5c 24 04          	mov    %ebx,0x4(%esp)
  802506:	a1 90 60 81 00       	mov    0x816090,%eax
  80250b:	89 04 24             	mov    %eax,(%esp)
  80250e:	e8 86 f8 ff ff       	call   801d99 <ipc_send>
	return ipc_recv(NULL, dstva, NULL);
  802513:	c7 44 24 08 00 00 00 	movl   $0x0,0x8(%esp)
  80251a:	00 
  80251b:	89 74 24 04          	mov    %esi,0x4(%esp)
  80251f:	c7 04 24 00 00 00 00 	movl   $0x0,(%esp)
  802526:	e8 d9 f8 ff ff       	call   801e04 <ipc_recv>
}
  80252b:	8b 5d f8             	mov    -0x8(%ebp),%ebx
  80252e:	8b 75 fc             	mov    -0x4(%ebp),%esi
  802531:	89 ec                	mov    %ebp,%esp
  802533:	5d                   	pop    %ebp
  802534:	c3                   	ret    

00802535 <devfile_trunc>:
}

// Truncate or extend an open file to 'size' bytes
static int
devfile_trunc(struct Fd *fd, off_t newsize)
{
  802535:	55                   	push   %ebp
  802536:	89 e5                	mov    %esp,%ebp
  802538:	83 ec 08             	sub    $0x8,%esp
	fsipcbuf.set_size.req_fileid = fd->fd_file.id;
  80253b:	8b 45 08             	mov    0x8(%ebp),%eax
  80253e:	8b 40 0c             	mov    0xc(%eax),%eax
  802541:	a3 00 d0 b3 00       	mov    %eax,0xb3d000
	fsipcbuf.set_size.req_size = newsize;
  802546:	8b 45 0c             	mov    0xc(%ebp),%eax
  802549:	a3 04 d0 b3 00       	mov    %eax,0xb3d004
	return fsipc(FSREQ_SET_SIZE, NULL);
  80254e:	ba 00 00 00 00       	mov    $0x0,%edx
  802553:	b8 02 00 00 00       	mov    $0x2,%eax
  802558:	e8 6b ff ff ff       	call   8024c8 <fsipc>
}
  80255d:	c9                   	leave  
  80255e:	c3                   	ret    

0080255f <devfile_flush>:
// open, unmapping it is enough to free up server-side resources.
// Other than that, we just have to make sure our changes are flushed
// to disk.
static int
devfile_flush(struct Fd *fd)
{
  80255f:	55                   	push   %ebp
  802560:	89 e5                	mov    %esp,%ebp
  802562:	83 ec 08             	sub    $0x8,%esp
	fsipcbuf.flush.req_fileid = fd->fd_file.id;
  802565:	8b 45 08             	mov    0x8(%ebp),%eax
  802568:	8b 40 0c             	mov    0xc(%eax),%eax
  80256b:	a3 00 d0 b3 00       	mov    %eax,0xb3d000
	return fsipc(FSREQ_FLUSH, NULL);
  802570:	ba 00 00 00 00       	mov    $0x0,%edx
  802575:	b8 06 00 00 00       	mov    $0x6,%eax
  80257a:	e8 49 ff ff ff       	call   8024c8 <fsipc>
}
  80257f:	c9                   	leave  
  802580:	c3                   	ret    

00802581 <sync>:
}

// Synchronize disk with buffer cache
int
sync(void)
{
  802581:	55                   	push   %ebp
  802582:	89 e5                	mov    %esp,%ebp
  802584:	83 ec 08             	sub    $0x8,%esp
	// Ask the file server to update the disk
	// by writing any dirty blocks in the buffer cache.

	return fsipc(FSREQ_SYNC, NULL);
  802587:	ba 00 00 00 00       	mov    $0x0,%edx
  80258c:	b8 08 00 00 00       	mov    $0x8,%eax
  802591:	e8 32 ff ff ff       	call   8024c8 <fsipc>
}
  802596:	c9                   	leave  
  802597:	c3                   	ret    

00802598 <devfile_stat>:
  return fsipc(FSREQ_WRITE, NULL);	
}

static int
devfile_stat(struct Fd *fd, struct Stat *st)
{
  802598:	55                   	push   %ebp
  802599:	89 e5                	mov    %esp,%ebp
  80259b:	53                   	push   %ebx
  80259c:	83 ec 14             	sub    $0x14,%esp
  80259f:	8b 5d 0c             	mov    0xc(%ebp),%ebx
	int r;

	fsipcbuf.stat.req_fileid = fd->fd_file.id;
  8025a2:	8b 45 08             	mov    0x8(%ebp),%eax
  8025a5:	8b 40 0c             	mov    0xc(%eax),%eax
  8025a8:	a3 00 d0 b3 00       	mov    %eax,0xb3d000
	if ((r = fsipc(FSREQ_STAT, NULL)) < 0)
  8025ad:	ba 00 00 00 00       	mov    $0x0,%edx
  8025b2:	b8 05 00 00 00       	mov    $0x5,%eax
  8025b7:	e8 0c ff ff ff       	call   8024c8 <fsipc>
  8025bc:	85 c0                	test   %eax,%eax
  8025be:	78 2b                	js     8025eb <devfile_stat+0x53>
		return r;
	strcpy(st->st_name, fsipcbuf.statRet.ret_name);
  8025c0:	c7 44 24 04 00 d0 b3 	movl   $0xb3d000,0x4(%esp)
  8025c7:	00 
  8025c8:	89 1c 24             	mov    %ebx,(%esp)
  8025cb:	e8 3a eb ff ff       	call   80110a <strcpy>
	st->st_size = fsipcbuf.statRet.ret_size;
  8025d0:	a1 80 d0 b3 00       	mov    0xb3d080,%eax
  8025d5:	89 83 80 00 00 00    	mov    %eax,0x80(%ebx)
	st->st_isdir = fsipcbuf.statRet.ret_isdir;
  8025db:	a1 84 d0 b3 00       	mov    0xb3d084,%eax
  8025e0:	89 83 84 00 00 00    	mov    %eax,0x84(%ebx)
  8025e6:	b8 00 00 00 00       	mov    $0x0,%eax
	return 0;
}
  8025eb:	83 c4 14             	add    $0x14,%esp
  8025ee:	5b                   	pop    %ebx
  8025ef:	5d                   	pop    %ebp
  8025f0:	c3                   	ret    

008025f1 <devfile_write>:
// Returns:
//	 The number of bytes successfully written.
//	 < 0 on error.
static ssize_t
devfile_write(struct Fd *fd, const void *buf, size_t n)
{
  8025f1:	55                   	push   %ebp
  8025f2:	89 e5                	mov    %esp,%ebp
  8025f4:	83 ec 18             	sub    $0x18,%esp
  8025f7:	8b 45 10             	mov    0x10(%ebp),%eax
	// Make an FSREQ_WRITE request to the file system server.  Be
	// careful: fsipcbuf.write.req_buf is only so large, but
	// remember that write is always allowed to write *fewer*
	// bytes than requested.
	// LAB 5: Your code here
  fsipcbuf.write.req_fileid = fd->fd_file.id;
  8025fa:	8b 55 08             	mov    0x8(%ebp),%edx
  8025fd:	8b 52 0c             	mov    0xc(%edx),%edx
  802600:	89 15 00 d0 b3 00    	mov    %edx,0xb3d000
  fsipcbuf.write.req_n = n;
  802606:	a3 04 d0 b3 00       	mov    %eax,0xb3d004
  memmove(fsipcbuf.write.req_buf, buf,
  80260b:	3d f8 0f 00 00       	cmp    $0xff8,%eax
  802610:	ba f8 0f 00 00       	mov    $0xff8,%edx
  802615:	0f 47 c2             	cmova  %edx,%eax
  802618:	89 44 24 08          	mov    %eax,0x8(%esp)
  80261c:	8b 45 0c             	mov    0xc(%ebp),%eax
  80261f:	89 44 24 04          	mov    %eax,0x4(%esp)
  802623:	c7 04 24 08 d0 b3 00 	movl   $0xb3d008,(%esp)
  80262a:	e8 c6 ec ff ff       	call   8012f5 <memmove>
      MIN(n, PGSIZE - sizeof(int) - sizeof(size_t)));
  return fsipc(FSREQ_WRITE, NULL);	
  80262f:	ba 00 00 00 00       	mov    $0x0,%edx
  802634:	b8 04 00 00 00       	mov    $0x4,%eax
  802639:	e8 8a fe ff ff       	call   8024c8 <fsipc>
}
  80263e:	c9                   	leave  
  80263f:	c3                   	ret    

00802640 <devfile_read>:
// Returns:
// 	The number of bytes successfully read.
// 	< 0 on error.
static ssize_t
devfile_read(struct Fd *fd, void *buf, size_t n)
{
  802640:	55                   	push   %ebp
  802641:	89 e5                	mov    %esp,%ebp
  802643:	53                   	push   %ebx
  802644:	83 ec 14             	sub    $0x14,%esp
	// bytes read will be written back to fsipcbuf by the file
	// system server.
	// LAB 5: Your code here
  int r;

  fsipcbuf.read.req_fileid = fd->fd_file.id;
  802647:	8b 45 08             	mov    0x8(%ebp),%eax
  80264a:	8b 40 0c             	mov    0xc(%eax),%eax
  80264d:	a3 00 d0 b3 00       	mov    %eax,0xb3d000
  fsipcbuf.read.req_n = n;
  802652:	8b 45 10             	mov    0x10(%ebp),%eax
  802655:	a3 04 d0 b3 00       	mov    %eax,0xb3d004
  if((r = fsipc(FSREQ_READ, NULL)) < 0)
  80265a:	ba 00 00 00 00       	mov    $0x0,%edx
  80265f:	b8 03 00 00 00       	mov    $0x3,%eax
  802664:	e8 5f fe ff ff       	call   8024c8 <fsipc>
  802669:	89 c3                	mov    %eax,%ebx
  80266b:	85 c0                	test   %eax,%eax
  80266d:	78 17                	js     802686 <devfile_read+0x46>
    return r;
  memmove(buf, fsipcbuf.readRet.ret_buf, r);
  80266f:	89 44 24 08          	mov    %eax,0x8(%esp)
  802673:	c7 44 24 04 00 d0 b3 	movl   $0xb3d000,0x4(%esp)
  80267a:	00 
  80267b:	8b 45 0c             	mov    0xc(%ebp),%eax
  80267e:	89 04 24             	mov    %eax,(%esp)
  802681:	e8 6f ec ff ff       	call   8012f5 <memmove>
  return r;	
}
  802686:	89 d8                	mov    %ebx,%eax
  802688:	83 c4 14             	add    $0x14,%esp
  80268b:	5b                   	pop    %ebx
  80268c:	5d                   	pop    %ebp
  80268d:	c3                   	ret    

0080268e <remove>:
}

// Delete a file
int
remove(const char *path)
{
  80268e:	55                   	push   %ebp
  80268f:	89 e5                	mov    %esp,%ebp
  802691:	53                   	push   %ebx
  802692:	83 ec 14             	sub    $0x14,%esp
  802695:	8b 5d 08             	mov    0x8(%ebp),%ebx
	if (strlen(path) >= MAXPATHLEN)
  802698:	89 1c 24             	mov    %ebx,(%esp)
  80269b:	e8 20 ea ff ff       	call   8010c0 <strlen>
  8026a0:	89 c2                	mov    %eax,%edx
  8026a2:	b8 f4 ff ff ff       	mov    $0xfffffff4,%eax
  8026a7:	81 fa ff 03 00 00    	cmp    $0x3ff,%edx
  8026ad:	7f 1f                	jg     8026ce <remove+0x40>
		return -E_BAD_PATH;
	strcpy(fsipcbuf.remove.req_path, path);
  8026af:	89 5c 24 04          	mov    %ebx,0x4(%esp)
  8026b3:	c7 04 24 00 d0 b3 00 	movl   $0xb3d000,(%esp)
  8026ba:	e8 4b ea ff ff       	call   80110a <strcpy>
	return fsipc(FSREQ_REMOVE, NULL);
  8026bf:	ba 00 00 00 00       	mov    $0x0,%edx
  8026c4:	b8 07 00 00 00       	mov    $0x7,%eax
  8026c9:	e8 fa fd ff ff       	call   8024c8 <fsipc>
}
  8026ce:	83 c4 14             	add    $0x14,%esp
  8026d1:	5b                   	pop    %ebx
  8026d2:	5d                   	pop    %ebp
  8026d3:	c3                   	ret    

008026d4 <open>:
// 	The file descriptor index on success
// 	-E_BAD_PATH if the path is too long (>= MAXPATHLEN)
// 	< 0 for other errors.
int
open(const char *path, int mode)
{
  8026d4:	55                   	push   %ebp
  8026d5:	89 e5                	mov    %esp,%ebp
  8026d7:	83 ec 28             	sub    $0x28,%esp
  8026da:	89 5d f8             	mov    %ebx,-0x8(%ebp)
  8026dd:	89 75 fc             	mov    %esi,-0x4(%ebp)
  8026e0:	8b 75 08             	mov    0x8(%ebp),%esi

	// LAB 5: Your code here.
  int r;
  struct Fd *fd;

  r = fd_alloc(&fd);
  8026e3:	8d 45 f4             	lea    -0xc(%ebp),%eax
  8026e6:	89 04 24             	mov    %eax,(%esp)
  8026e9:	e8 dd f7 ff ff       	call   801ecb <fd_alloc>
  8026ee:	89 c3                	mov    %eax,%ebx
  if (r < 0) return r;
  8026f0:	85 c0                	test   %eax,%eax
  8026f2:	0f 88 89 00 00 00    	js     802781 <open+0xad>

        // DO NOT ALLOCATE !!
        //r = sys_page_alloc(0, fd, PTE_U|PTE_W|PTE_P);
        //if (r < 0) goto out;

  if (strlen(path) >= MAXPATHLEN)
  8026f8:	89 34 24             	mov    %esi,(%esp)
  8026fb:	e8 c0 e9 ff ff       	call   8010c0 <strlen>
  fsipcbuf.open.req_omode = mode;
  r = fsipc(FSREQ_OPEN, fd);
  if (r < 0) goto out;
  return fd2num(fd);
out:
  assert(fd_close(fd, 0) == 0);
  802700:	bb f4 ff ff ff       	mov    $0xfffffff4,%ebx

        // DO NOT ALLOCATE !!
        //r = sys_page_alloc(0, fd, PTE_U|PTE_W|PTE_P);
        //if (r < 0) goto out;

  if (strlen(path) >= MAXPATHLEN)
  802705:	3d ff 03 00 00       	cmp    $0x3ff,%eax
  80270a:	7f 75                	jg     802781 <open+0xad>
    return -E_BAD_PATH;
  strcpy(fsipcbuf.open.req_path, path);
  80270c:	89 74 24 04          	mov    %esi,0x4(%esp)
  802710:	c7 04 24 00 d0 b3 00 	movl   $0xb3d000,(%esp)
  802717:	e8 ee e9 ff ff       	call   80110a <strcpy>
  fsipcbuf.open.req_omode = mode;
  80271c:	8b 45 0c             	mov    0xc(%ebp),%eax
  80271f:	a3 00 d4 b3 00       	mov    %eax,0xb3d400
  r = fsipc(FSREQ_OPEN, fd);
  802724:	8b 55 f4             	mov    -0xc(%ebp),%edx
  802727:	b8 01 00 00 00       	mov    $0x1,%eax
  80272c:	e8 97 fd ff ff       	call   8024c8 <fsipc>
  802731:	89 c3                	mov    %eax,%ebx
  if (r < 0) goto out;
  802733:	85 c0                	test   %eax,%eax
  802735:	78 0f                	js     802746 <open+0x72>
  return fd2num(fd);
  802737:	8b 45 f4             	mov    -0xc(%ebp),%eax
  80273a:	89 04 24             	mov    %eax,(%esp)
  80273d:	e8 5e f7 ff ff       	call   801ea0 <fd2num>
  802742:	89 c3                	mov    %eax,%ebx
  802744:	eb 3b                	jmp    802781 <open+0xad>
out:
  assert(fd_close(fd, 0) == 0);
  802746:	c7 44 24 04 00 00 00 	movl   $0x0,0x4(%esp)
  80274d:	00 
  80274e:	8b 45 f4             	mov    -0xc(%ebp),%eax
  802751:	89 04 24             	mov    %eax,(%esp)
  802754:	e8 2b fb ff ff       	call   802284 <fd_close>
  802759:	85 c0                	test   %eax,%eax
  80275b:	74 24                	je     802781 <open+0xad>
  80275d:	c7 44 24 0c 8c 28 81 	movl   $0x81288c,0xc(%esp)
  802764:	00 
  802765:	c7 44 24 08 a1 28 81 	movl   $0x8128a1,0x8(%esp)
  80276c:	00 
  80276d:	c7 44 24 04 5a 00 00 	movl   $0x5a,0x4(%esp)
  802774:	00 
  802775:	c7 04 24 b6 28 81 00 	movl   $0x8128b6,(%esp)
  80277c:	e8 93 e1 ff ff       	call   800914 <_panic>
  return r;
}
  802781:	89 d8                	mov    %ebx,%eax
  802783:	8b 5d f8             	mov    -0x8(%ebp),%ebx
  802786:	8b 75 fc             	mov    -0x4(%ebp),%esi
  802789:	89 ec                	mov    %ebp,%esp
  80278b:	5d                   	pop    %ebp
  80278c:	c3                   	ret    
  80278d:	00 00                	add    %al,(%eax)
	...

00802790 <devsock_stat>:
	return nsipc_send(fd->fd_sock.sockid, buf, n, 0);
}

static int
devsock_stat(struct Fd *fd, struct Stat *stat)
{
  802790:	55                   	push   %ebp
  802791:	89 e5                	mov    %esp,%ebp
  802793:	83 ec 18             	sub    $0x18,%esp
	strcpy(stat->st_name, "<sock>");
  802796:	c7 44 24 04 c1 28 81 	movl   $0x8128c1,0x4(%esp)
  80279d:	00 
  80279e:	8b 45 0c             	mov    0xc(%ebp),%eax
  8027a1:	89 04 24             	mov    %eax,(%esp)
  8027a4:	e8 61 e9 ff ff       	call   80110a <strcpy>
	return 0;
}
  8027a9:	b8 00 00 00 00       	mov    $0x0,%eax
  8027ae:	c9                   	leave  
  8027af:	c3                   	ret    

008027b0 <devsock_close>:
	return nsipc_shutdown(r, how);
}

static int
devsock_close(struct Fd *fd)
{
  8027b0:	55                   	push   %ebp
  8027b1:	89 e5                	mov    %esp,%ebp
  8027b3:	53                   	push   %ebx
  8027b4:	83 ec 14             	sub    $0x14,%esp
  8027b7:	8b 5d 08             	mov    0x8(%ebp),%ebx
	if (pageref(fd) == 1)
  8027ba:	89 1c 24             	mov    %ebx,(%esp)
  8027bd:	e8 22 08 00 00       	call   802fe4 <pageref>
  8027c2:	89 c2                	mov    %eax,%edx
  8027c4:	b8 00 00 00 00       	mov    $0x0,%eax
  8027c9:	83 fa 01             	cmp    $0x1,%edx
  8027cc:	75 0b                	jne    8027d9 <devsock_close+0x29>
		return nsipc_close(fd->fd_sock.sockid);
  8027ce:	8b 43 0c             	mov    0xc(%ebx),%eax
  8027d1:	89 04 24             	mov    %eax,(%esp)
  8027d4:	e8 b9 02 00 00       	call   802a92 <nsipc_close>
	else
		return 0;
}
  8027d9:	83 c4 14             	add    $0x14,%esp
  8027dc:	5b                   	pop    %ebx
  8027dd:	5d                   	pop    %ebp
  8027de:	c3                   	ret    

008027df <devsock_write>:
	return nsipc_recv(fd->fd_sock.sockid, buf, n, 0);
}

static ssize_t
devsock_write(struct Fd *fd, const void *buf, size_t n)
{
  8027df:	55                   	push   %ebp
  8027e0:	89 e5                	mov    %esp,%ebp
  8027e2:	83 ec 18             	sub    $0x18,%esp
	return nsipc_send(fd->fd_sock.sockid, buf, n, 0);
  8027e5:	c7 44 24 0c 00 00 00 	movl   $0x0,0xc(%esp)
  8027ec:	00 
  8027ed:	8b 45 10             	mov    0x10(%ebp),%eax
  8027f0:	89 44 24 08          	mov    %eax,0x8(%esp)
  8027f4:	8b 45 0c             	mov    0xc(%ebp),%eax
  8027f7:	89 44 24 04          	mov    %eax,0x4(%esp)
  8027fb:	8b 45 08             	mov    0x8(%ebp),%eax
  8027fe:	8b 40 0c             	mov    0xc(%eax),%eax
  802801:	89 04 24             	mov    %eax,(%esp)
  802804:	e8 c5 02 00 00       	call   802ace <nsipc_send>
}
  802809:	c9                   	leave  
  80280a:	c3                   	ret    

0080280b <devsock_read>:
	return nsipc_listen(r, backlog);
}

static ssize_t
devsock_read(struct Fd *fd, void *buf, size_t n)
{
  80280b:	55                   	push   %ebp
  80280c:	89 e5                	mov    %esp,%ebp
  80280e:	83 ec 18             	sub    $0x18,%esp
	return nsipc_recv(fd->fd_sock.sockid, buf, n, 0);
  802811:	c7 44 24 0c 00 00 00 	movl   $0x0,0xc(%esp)
  802818:	00 
  802819:	8b 45 10             	mov    0x10(%ebp),%eax
  80281c:	89 44 24 08          	mov    %eax,0x8(%esp)
  802820:	8b 45 0c             	mov    0xc(%ebp),%eax
  802823:	89 44 24 04          	mov    %eax,0x4(%esp)
  802827:	8b 45 08             	mov    0x8(%ebp),%eax
  80282a:	8b 40 0c             	mov    0xc(%eax),%eax
  80282d:	89 04 24             	mov    %eax,(%esp)
  802830:	e8 0c 03 00 00       	call   802b41 <nsipc_recv>
}
  802835:	c9                   	leave  
  802836:	c3                   	ret    

00802837 <alloc_sockfd>:
	return sfd->fd_sock.sockid;
}

static int
alloc_sockfd(int sockid)
{
  802837:	55                   	push   %ebp
  802838:	89 e5                	mov    %esp,%ebp
  80283a:	56                   	push   %esi
  80283b:	53                   	push   %ebx
  80283c:	83 ec 20             	sub    $0x20,%esp
  80283f:	89 c6                	mov    %eax,%esi
	struct Fd *sfd;
	int r;

	if ((r = fd_alloc(&sfd)) < 0
  802841:	8d 45 f4             	lea    -0xc(%ebp),%eax
  802844:	89 04 24             	mov    %eax,(%esp)
  802847:	e8 7f f6 ff ff       	call   801ecb <fd_alloc>
  80284c:	89 c3                	mov    %eax,%ebx
  80284e:	85 c0                	test   %eax,%eax
  802850:	78 21                	js     802873 <alloc_sockfd+0x3c>
	    || (r = sys_page_alloc(0, sfd, PTE_P|PTE_W|PTE_U|PTE_SHARE)) < 0) {
  802852:	c7 44 24 08 07 04 00 	movl   $0x407,0x8(%esp)
  802859:	00 
  80285a:	8b 45 f4             	mov    -0xc(%ebp),%eax
  80285d:	89 44 24 04          	mov    %eax,0x4(%esp)
  802861:	c7 04 24 00 00 00 00 	movl   $0x0,(%esp)
  802868:	e8 00 ef ff ff       	call   80176d <sys_page_alloc>
  80286d:	89 c3                	mov    %eax,%ebx
alloc_sockfd(int sockid)
{
	struct Fd *sfd;
	int r;

	if ((r = fd_alloc(&sfd)) < 0
  80286f:	85 c0                	test   %eax,%eax
  802871:	79 0a                	jns    80287d <alloc_sockfd+0x46>
	    || (r = sys_page_alloc(0, sfd, PTE_P|PTE_W|PTE_U|PTE_SHARE)) < 0) {
		nsipc_close(sockid);
  802873:	89 34 24             	mov    %esi,(%esp)
  802876:	e8 17 02 00 00       	call   802a92 <nsipc_close>
		return r;
  80287b:	eb 28                	jmp    8028a5 <alloc_sockfd+0x6e>
	}

	sfd->fd_dev_id = devsock.dev_id;
  80287d:	8b 15 20 50 81 00    	mov    0x815020,%edx
  802883:	8b 45 f4             	mov    -0xc(%ebp),%eax
  802886:	89 10                	mov    %edx,(%eax)
	sfd->fd_omode = O_RDWR;
  802888:	8b 45 f4             	mov    -0xc(%ebp),%eax
  80288b:	c7 40 08 02 00 00 00 	movl   $0x2,0x8(%eax)
	sfd->fd_sock.sockid = sockid;
  802892:	8b 45 f4             	mov    -0xc(%ebp),%eax
  802895:	89 70 0c             	mov    %esi,0xc(%eax)
	return fd2num(sfd);
  802898:	8b 45 f4             	mov    -0xc(%ebp),%eax
  80289b:	89 04 24             	mov    %eax,(%esp)
  80289e:	e8 fd f5 ff ff       	call   801ea0 <fd2num>
  8028a3:	89 c3                	mov    %eax,%ebx
}
  8028a5:	89 d8                	mov    %ebx,%eax
  8028a7:	83 c4 20             	add    $0x20,%esp
  8028aa:	5b                   	pop    %ebx
  8028ab:	5e                   	pop    %esi
  8028ac:	5d                   	pop    %ebp
  8028ad:	c3                   	ret    

008028ae <socket>:
	return 0;
}

int
socket(int domain, int type, int protocol)
{
  8028ae:	55                   	push   %ebp
  8028af:	89 e5                	mov    %esp,%ebp
  8028b1:	83 ec 18             	sub    $0x18,%esp
	int r;
	if ((r = nsipc_socket(domain, type, protocol)) < 0)
  8028b4:	8b 45 10             	mov    0x10(%ebp),%eax
  8028b7:	89 44 24 08          	mov    %eax,0x8(%esp)
  8028bb:	8b 45 0c             	mov    0xc(%ebp),%eax
  8028be:	89 44 24 04          	mov    %eax,0x4(%esp)
  8028c2:	8b 45 08             	mov    0x8(%ebp),%eax
  8028c5:	89 04 24             	mov    %eax,(%esp)
  8028c8:	e8 79 01 00 00       	call   802a46 <nsipc_socket>
  8028cd:	85 c0                	test   %eax,%eax
  8028cf:	78 05                	js     8028d6 <socket+0x28>
		return r;
	return alloc_sockfd(r);
  8028d1:	e8 61 ff ff ff       	call   802837 <alloc_sockfd>
}
  8028d6:	c9                   	leave  
  8028d7:	c3                   	ret    

008028d8 <fd2sockid>:
	.dev_stat =	devsock_stat,
};

static int
fd2sockid(int fd)
{
  8028d8:	55                   	push   %ebp
  8028d9:	89 e5                	mov    %esp,%ebp
  8028db:	83 ec 28             	sub    $0x28,%esp
	struct Fd *sfd;
	int r;

	if ((r = fd_lookup(fd, &sfd)) < 0)
  8028de:	8d 55 f4             	lea    -0xc(%ebp),%edx
  8028e1:	89 54 24 04          	mov    %edx,0x4(%esp)
  8028e5:	89 04 24             	mov    %eax,(%esp)
  8028e8:	e8 50 f6 ff ff       	call   801f3d <fd_lookup>
  8028ed:	85 c0                	test   %eax,%eax
  8028ef:	78 15                	js     802906 <fd2sockid+0x2e>
		return r;
	if (sfd->fd_dev_id != devsock.dev_id)
  8028f1:	8b 55 f4             	mov    -0xc(%ebp),%edx
  8028f4:	8b 0a                	mov    (%edx),%ecx
  8028f6:	b8 f1 ff ff ff       	mov    $0xfffffff1,%eax
  8028fb:	3b 0d 20 50 81 00    	cmp    0x815020,%ecx
  802901:	75 03                	jne    802906 <fd2sockid+0x2e>
		return -E_NOT_SUPP;
	return sfd->fd_sock.sockid;
  802903:	8b 42 0c             	mov    0xc(%edx),%eax
}
  802906:	c9                   	leave  
  802907:	c3                   	ret    

00802908 <listen>:
	return nsipc_connect(r, name, namelen);
}

int
listen(int s, int backlog)
{
  802908:	55                   	push   %ebp
  802909:	89 e5                	mov    %esp,%ebp
  80290b:	83 ec 18             	sub    $0x18,%esp
	int r;
	if ((r = fd2sockid(s)) < 0)
  80290e:	8b 45 08             	mov    0x8(%ebp),%eax
  802911:	e8 c2 ff ff ff       	call   8028d8 <fd2sockid>
  802916:	85 c0                	test   %eax,%eax
  802918:	78 0f                	js     802929 <listen+0x21>
		return r;
	return nsipc_listen(r, backlog);
  80291a:	8b 55 0c             	mov    0xc(%ebp),%edx
  80291d:	89 54 24 04          	mov    %edx,0x4(%esp)
  802921:	89 04 24             	mov    %eax,(%esp)
  802924:	e8 47 01 00 00       	call   802a70 <nsipc_listen>
}
  802929:	c9                   	leave  
  80292a:	c3                   	ret    

0080292b <connect>:
		return 0;
}

int
connect(int s, const struct sockaddr *name, socklen_t namelen)
{
  80292b:	55                   	push   %ebp
  80292c:	89 e5                	mov    %esp,%ebp
  80292e:	83 ec 18             	sub    $0x18,%esp
	int r;
	if ((r = fd2sockid(s)) < 0)
  802931:	8b 45 08             	mov    0x8(%ebp),%eax
  802934:	e8 9f ff ff ff       	call   8028d8 <fd2sockid>
  802939:	85 c0                	test   %eax,%eax
  80293b:	78 16                	js     802953 <connect+0x28>
		return r;
	return nsipc_connect(r, name, namelen);
  80293d:	8b 55 10             	mov    0x10(%ebp),%edx
  802940:	89 54 24 08          	mov    %edx,0x8(%esp)
  802944:	8b 55 0c             	mov    0xc(%ebp),%edx
  802947:	89 54 24 04          	mov    %edx,0x4(%esp)
  80294b:	89 04 24             	mov    %eax,(%esp)
  80294e:	e8 6e 02 00 00       	call   802bc1 <nsipc_connect>
}
  802953:	c9                   	leave  
  802954:	c3                   	ret    

00802955 <shutdown>:
	return nsipc_bind(r, name, namelen);
}

int
shutdown(int s, int how)
{
  802955:	55                   	push   %ebp
  802956:	89 e5                	mov    %esp,%ebp
  802958:	83 ec 18             	sub    $0x18,%esp
	int r;
	if ((r = fd2sockid(s)) < 0)
  80295b:	8b 45 08             	mov    0x8(%ebp),%eax
  80295e:	e8 75 ff ff ff       	call   8028d8 <fd2sockid>
  802963:	85 c0                	test   %eax,%eax
  802965:	78 0f                	js     802976 <shutdown+0x21>
		return r;
	return nsipc_shutdown(r, how);
  802967:	8b 55 0c             	mov    0xc(%ebp),%edx
  80296a:	89 54 24 04          	mov    %edx,0x4(%esp)
  80296e:	89 04 24             	mov    %eax,(%esp)
  802971:	e8 36 01 00 00       	call   802aac <nsipc_shutdown>
}
  802976:	c9                   	leave  
  802977:	c3                   	ret    

00802978 <bind>:
	return alloc_sockfd(r);
}

int
bind(int s, struct sockaddr *name, socklen_t namelen)
{
  802978:	55                   	push   %ebp
  802979:	89 e5                	mov    %esp,%ebp
  80297b:	83 ec 18             	sub    $0x18,%esp
	int r;
	if ((r = fd2sockid(s)) < 0)
  80297e:	8b 45 08             	mov    0x8(%ebp),%eax
  802981:	e8 52 ff ff ff       	call   8028d8 <fd2sockid>
  802986:	85 c0                	test   %eax,%eax
  802988:	78 16                	js     8029a0 <bind+0x28>
		return r;
	return nsipc_bind(r, name, namelen);
  80298a:	8b 55 10             	mov    0x10(%ebp),%edx
  80298d:	89 54 24 08          	mov    %edx,0x8(%esp)
  802991:	8b 55 0c             	mov    0xc(%ebp),%edx
  802994:	89 54 24 04          	mov    %edx,0x4(%esp)
  802998:	89 04 24             	mov    %eax,(%esp)
  80299b:	e8 60 02 00 00       	call   802c00 <nsipc_bind>
}
  8029a0:	c9                   	leave  
  8029a1:	c3                   	ret    

008029a2 <accept>:
	return fd2num(sfd);
}

int
accept(int s, struct sockaddr *addr, socklen_t *addrlen)
{
  8029a2:	55                   	push   %ebp
  8029a3:	89 e5                	mov    %esp,%ebp
  8029a5:	83 ec 18             	sub    $0x18,%esp
	int r;
	if ((r = fd2sockid(s)) < 0)
  8029a8:	8b 45 08             	mov    0x8(%ebp),%eax
  8029ab:	e8 28 ff ff ff       	call   8028d8 <fd2sockid>
  8029b0:	85 c0                	test   %eax,%eax
  8029b2:	78 1f                	js     8029d3 <accept+0x31>
		return r;
	if ((r = nsipc_accept(r, addr, addrlen)) < 0)
  8029b4:	8b 55 10             	mov    0x10(%ebp),%edx
  8029b7:	89 54 24 08          	mov    %edx,0x8(%esp)
  8029bb:	8b 55 0c             	mov    0xc(%ebp),%edx
  8029be:	89 54 24 04          	mov    %edx,0x4(%esp)
  8029c2:	89 04 24             	mov    %eax,(%esp)
  8029c5:	e8 75 02 00 00       	call   802c3f <nsipc_accept>
  8029ca:	85 c0                	test   %eax,%eax
  8029cc:	78 05                	js     8029d3 <accept+0x31>
		return r;
	return alloc_sockfd(r);
  8029ce:	e8 64 fe ff ff       	call   802837 <alloc_sockfd>
}
  8029d3:	c9                   	leave  
  8029d4:	c3                   	ret    
	...

008029e0 <nsipc>:
// may be written back to nsipcbuf.
// type: request code, passed as the simple integer IPC value.
// Returns 0 if successful, < 0 on failure.
static int
nsipc(unsigned type)
{
  8029e0:	55                   	push   %ebp
  8029e1:	89 e5                	mov    %esp,%ebp
  8029e3:	53                   	push   %ebx
  8029e4:	83 ec 14             	sub    $0x14,%esp
  8029e7:	89 c3                	mov    %eax,%ebx
	static envid_t nsenv;
	if (nsenv == 0)
  8029e9:	83 3d 94 60 81 00 00 	cmpl   $0x0,0x816094
  8029f0:	75 11                	jne    802a03 <nsipc+0x23>
		nsenv = ipc_find_env(ENV_TYPE_NS);
  8029f2:	c7 04 24 03 00 00 00 	movl   $0x3,(%esp)
  8029f9:	e8 52 f3 ff ff       	call   801d50 <ipc_find_env>
  8029fe:	a3 94 60 81 00       	mov    %eax,0x816094
	static_assert(sizeof(nsipcbuf) == PGSIZE);

	if (debug)
		cprintf("[%08x] nsipc %d\n", thisenv->env_id, type);

	ipc_send(nsenv, type, &nsipcbuf, PTE_P|PTE_W|PTE_U);
  802a03:	c7 44 24 0c 07 00 00 	movl   $0x7,0xc(%esp)
  802a0a:	00 
  802a0b:	c7 44 24 08 00 e0 b3 	movl   $0xb3e000,0x8(%esp)
  802a12:	00 
  802a13:	89 5c 24 04          	mov    %ebx,0x4(%esp)
  802a17:	a1 94 60 81 00       	mov    0x816094,%eax
  802a1c:	89 04 24             	mov    %eax,(%esp)
  802a1f:	e8 75 f3 ff ff       	call   801d99 <ipc_send>
	return ipc_recv(NULL, NULL, NULL);
  802a24:	c7 44 24 08 00 00 00 	movl   $0x0,0x8(%esp)
  802a2b:	00 
  802a2c:	c7 44 24 04 00 00 00 	movl   $0x0,0x4(%esp)
  802a33:	00 
  802a34:	c7 04 24 00 00 00 00 	movl   $0x0,(%esp)
  802a3b:	e8 c4 f3 ff ff       	call   801e04 <ipc_recv>
}
  802a40:	83 c4 14             	add    $0x14,%esp
  802a43:	5b                   	pop    %ebx
  802a44:	5d                   	pop    %ebp
  802a45:	c3                   	ret    

00802a46 <nsipc_socket>:
	return nsipc(NSREQ_SEND);
}

int
nsipc_socket(int domain, int type, int protocol)
{
  802a46:	55                   	push   %ebp
  802a47:	89 e5                	mov    %esp,%ebp
  802a49:	83 ec 08             	sub    $0x8,%esp
	nsipcbuf.socket.req_domain = domain;
  802a4c:	8b 45 08             	mov    0x8(%ebp),%eax
  802a4f:	a3 00 e0 b3 00       	mov    %eax,0xb3e000
	nsipcbuf.socket.req_type = type;
  802a54:	8b 45 0c             	mov    0xc(%ebp),%eax
  802a57:	a3 04 e0 b3 00       	mov    %eax,0xb3e004
	nsipcbuf.socket.req_protocol = protocol;
  802a5c:	8b 45 10             	mov    0x10(%ebp),%eax
  802a5f:	a3 08 e0 b3 00       	mov    %eax,0xb3e008
	return nsipc(NSREQ_SOCKET);
  802a64:	b8 09 00 00 00       	mov    $0x9,%eax
  802a69:	e8 72 ff ff ff       	call   8029e0 <nsipc>
}
  802a6e:	c9                   	leave  
  802a6f:	c3                   	ret    

00802a70 <nsipc_listen>:
	return nsipc(NSREQ_CONNECT);
}

int
nsipc_listen(int s, int backlog)
{
  802a70:	55                   	push   %ebp
  802a71:	89 e5                	mov    %esp,%ebp
  802a73:	83 ec 08             	sub    $0x8,%esp
	nsipcbuf.listen.req_s = s;
  802a76:	8b 45 08             	mov    0x8(%ebp),%eax
  802a79:	a3 00 e0 b3 00       	mov    %eax,0xb3e000
	nsipcbuf.listen.req_backlog = backlog;
  802a7e:	8b 45 0c             	mov    0xc(%ebp),%eax
  802a81:	a3 04 e0 b3 00       	mov    %eax,0xb3e004
	return nsipc(NSREQ_LISTEN);
  802a86:	b8 06 00 00 00       	mov    $0x6,%eax
  802a8b:	e8 50 ff ff ff       	call   8029e0 <nsipc>
}
  802a90:	c9                   	leave  
  802a91:	c3                   	ret    

00802a92 <nsipc_close>:
	return nsipc(NSREQ_SHUTDOWN);
}

int
nsipc_close(int s)
{
  802a92:	55                   	push   %ebp
  802a93:	89 e5                	mov    %esp,%ebp
  802a95:	83 ec 08             	sub    $0x8,%esp
	nsipcbuf.close.req_s = s;
  802a98:	8b 45 08             	mov    0x8(%ebp),%eax
  802a9b:	a3 00 e0 b3 00       	mov    %eax,0xb3e000
	return nsipc(NSREQ_CLOSE);
  802aa0:	b8 04 00 00 00       	mov    $0x4,%eax
  802aa5:	e8 36 ff ff ff       	call   8029e0 <nsipc>
}
  802aaa:	c9                   	leave  
  802aab:	c3                   	ret    

00802aac <nsipc_shutdown>:
	return nsipc(NSREQ_BIND);
}

int
nsipc_shutdown(int s, int how)
{
  802aac:	55                   	push   %ebp
  802aad:	89 e5                	mov    %esp,%ebp
  802aaf:	83 ec 08             	sub    $0x8,%esp
	nsipcbuf.shutdown.req_s = s;
  802ab2:	8b 45 08             	mov    0x8(%ebp),%eax
  802ab5:	a3 00 e0 b3 00       	mov    %eax,0xb3e000
	nsipcbuf.shutdown.req_how = how;
  802aba:	8b 45 0c             	mov    0xc(%ebp),%eax
  802abd:	a3 04 e0 b3 00       	mov    %eax,0xb3e004
	return nsipc(NSREQ_SHUTDOWN);
  802ac2:	b8 03 00 00 00       	mov    $0x3,%eax
  802ac7:	e8 14 ff ff ff       	call   8029e0 <nsipc>
}
  802acc:	c9                   	leave  
  802acd:	c3                   	ret    

00802ace <nsipc_send>:
	return r;
}

int
nsipc_send(int s, const void *buf, int size, unsigned int flags)
{
  802ace:	55                   	push   %ebp
  802acf:	89 e5                	mov    %esp,%ebp
  802ad1:	53                   	push   %ebx
  802ad2:	83 ec 14             	sub    $0x14,%esp
  802ad5:	8b 5d 10             	mov    0x10(%ebp),%ebx
	nsipcbuf.send.req_s = s;
  802ad8:	8b 45 08             	mov    0x8(%ebp),%eax
  802adb:	a3 00 e0 b3 00       	mov    %eax,0xb3e000
	assert(size < 1600);
  802ae0:	81 fb 3f 06 00 00    	cmp    $0x63f,%ebx
  802ae6:	7e 24                	jle    802b0c <nsipc_send+0x3e>
  802ae8:	c7 44 24 0c cd 28 81 	movl   $0x8128cd,0xc(%esp)
  802aef:	00 
  802af0:	c7 44 24 08 a1 28 81 	movl   $0x8128a1,0x8(%esp)
  802af7:	00 
  802af8:	c7 44 24 04 6c 00 00 	movl   $0x6c,0x4(%esp)
  802aff:	00 
  802b00:	c7 04 24 d9 28 81 00 	movl   $0x8128d9,(%esp)
  802b07:	e8 08 de ff ff       	call   800914 <_panic>
	memmove(&nsipcbuf.send.req_buf, buf, size);
  802b0c:	89 5c 24 08          	mov    %ebx,0x8(%esp)
  802b10:	8b 45 0c             	mov    0xc(%ebp),%eax
  802b13:	89 44 24 04          	mov    %eax,0x4(%esp)
  802b17:	c7 04 24 0c e0 b3 00 	movl   $0xb3e00c,(%esp)
  802b1e:	e8 d2 e7 ff ff       	call   8012f5 <memmove>
	nsipcbuf.send.req_size = size;
  802b23:	89 1d 04 e0 b3 00    	mov    %ebx,0xb3e004
	nsipcbuf.send.req_flags = flags;
  802b29:	8b 45 14             	mov    0x14(%ebp),%eax
  802b2c:	a3 08 e0 b3 00       	mov    %eax,0xb3e008
	return nsipc(NSREQ_SEND);
  802b31:	b8 08 00 00 00       	mov    $0x8,%eax
  802b36:	e8 a5 fe ff ff       	call   8029e0 <nsipc>
}
  802b3b:	83 c4 14             	add    $0x14,%esp
  802b3e:	5b                   	pop    %ebx
  802b3f:	5d                   	pop    %ebp
  802b40:	c3                   	ret    

00802b41 <nsipc_recv>:
	return nsipc(NSREQ_LISTEN);
}

int
nsipc_recv(int s, void *mem, int len, unsigned int flags)
{
  802b41:	55                   	push   %ebp
  802b42:	89 e5                	mov    %esp,%ebp
  802b44:	56                   	push   %esi
  802b45:	53                   	push   %ebx
  802b46:	83 ec 10             	sub    $0x10,%esp
  802b49:	8b 75 10             	mov    0x10(%ebp),%esi
	int r;

	nsipcbuf.recv.req_s = s;
  802b4c:	8b 45 08             	mov    0x8(%ebp),%eax
  802b4f:	a3 00 e0 b3 00       	mov    %eax,0xb3e000
	nsipcbuf.recv.req_len = len;
  802b54:	89 35 04 e0 b3 00    	mov    %esi,0xb3e004
	nsipcbuf.recv.req_flags = flags;
  802b5a:	8b 45 14             	mov    0x14(%ebp),%eax
  802b5d:	a3 08 e0 b3 00       	mov    %eax,0xb3e008

	if ((r = nsipc(NSREQ_RECV)) >= 0) {
  802b62:	b8 07 00 00 00       	mov    $0x7,%eax
  802b67:	e8 74 fe ff ff       	call   8029e0 <nsipc>
  802b6c:	89 c3                	mov    %eax,%ebx
  802b6e:	85 c0                	test   %eax,%eax
  802b70:	78 46                	js     802bb8 <nsipc_recv+0x77>
		assert(r < 1600 && r <= len);
  802b72:	3d 3f 06 00 00       	cmp    $0x63f,%eax
  802b77:	7f 04                	jg     802b7d <nsipc_recv+0x3c>
  802b79:	39 c6                	cmp    %eax,%esi
  802b7b:	7d 24                	jge    802ba1 <nsipc_recv+0x60>
  802b7d:	c7 44 24 0c e5 28 81 	movl   $0x8128e5,0xc(%esp)
  802b84:	00 
  802b85:	c7 44 24 08 a1 28 81 	movl   $0x8128a1,0x8(%esp)
  802b8c:	00 
  802b8d:	c7 44 24 04 61 00 00 	movl   $0x61,0x4(%esp)
  802b94:	00 
  802b95:	c7 04 24 d9 28 81 00 	movl   $0x8128d9,(%esp)
  802b9c:	e8 73 dd ff ff       	call   800914 <_panic>
		memmove(mem, nsipcbuf.recvRet.ret_buf, r);
  802ba1:	89 44 24 08          	mov    %eax,0x8(%esp)
  802ba5:	c7 44 24 04 00 e0 b3 	movl   $0xb3e000,0x4(%esp)
  802bac:	00 
  802bad:	8b 45 0c             	mov    0xc(%ebp),%eax
  802bb0:	89 04 24             	mov    %eax,(%esp)
  802bb3:	e8 3d e7 ff ff       	call   8012f5 <memmove>
	}

	return r;
}
  802bb8:	89 d8                	mov    %ebx,%eax
  802bba:	83 c4 10             	add    $0x10,%esp
  802bbd:	5b                   	pop    %ebx
  802bbe:	5e                   	pop    %esi
  802bbf:	5d                   	pop    %ebp
  802bc0:	c3                   	ret    

00802bc1 <nsipc_connect>:
	return nsipc(NSREQ_CLOSE);
}

int
nsipc_connect(int s, const struct sockaddr *name, socklen_t namelen)
{
  802bc1:	55                   	push   %ebp
  802bc2:	89 e5                	mov    %esp,%ebp
  802bc4:	53                   	push   %ebx
  802bc5:	83 ec 14             	sub    $0x14,%esp
  802bc8:	8b 5d 10             	mov    0x10(%ebp),%ebx
	nsipcbuf.connect.req_s = s;
  802bcb:	8b 45 08             	mov    0x8(%ebp),%eax
  802bce:	a3 00 e0 b3 00       	mov    %eax,0xb3e000
	memmove(&nsipcbuf.connect.req_name, name, namelen);
  802bd3:	89 5c 24 08          	mov    %ebx,0x8(%esp)
  802bd7:	8b 45 0c             	mov    0xc(%ebp),%eax
  802bda:	89 44 24 04          	mov    %eax,0x4(%esp)
  802bde:	c7 04 24 04 e0 b3 00 	movl   $0xb3e004,(%esp)
  802be5:	e8 0b e7 ff ff       	call   8012f5 <memmove>
	nsipcbuf.connect.req_namelen = namelen;
  802bea:	89 1d 14 e0 b3 00    	mov    %ebx,0xb3e014
	return nsipc(NSREQ_CONNECT);
  802bf0:	b8 05 00 00 00       	mov    $0x5,%eax
  802bf5:	e8 e6 fd ff ff       	call   8029e0 <nsipc>
}
  802bfa:	83 c4 14             	add    $0x14,%esp
  802bfd:	5b                   	pop    %ebx
  802bfe:	5d                   	pop    %ebp
  802bff:	c3                   	ret    

00802c00 <nsipc_bind>:
	return r;
}

int
nsipc_bind(int s, struct sockaddr *name, socklen_t namelen)
{
  802c00:	55                   	push   %ebp
  802c01:	89 e5                	mov    %esp,%ebp
  802c03:	53                   	push   %ebx
  802c04:	83 ec 14             	sub    $0x14,%esp
  802c07:	8b 5d 10             	mov    0x10(%ebp),%ebx
	nsipcbuf.bind.req_s = s;
  802c0a:	8b 45 08             	mov    0x8(%ebp),%eax
  802c0d:	a3 00 e0 b3 00       	mov    %eax,0xb3e000
	memmove(&nsipcbuf.bind.req_name, name, namelen);
  802c12:	89 5c 24 08          	mov    %ebx,0x8(%esp)
  802c16:	8b 45 0c             	mov    0xc(%ebp),%eax
  802c19:	89 44 24 04          	mov    %eax,0x4(%esp)
  802c1d:	c7 04 24 04 e0 b3 00 	movl   $0xb3e004,(%esp)
  802c24:	e8 cc e6 ff ff       	call   8012f5 <memmove>
	nsipcbuf.bind.req_namelen = namelen;
  802c29:	89 1d 14 e0 b3 00    	mov    %ebx,0xb3e014
	return nsipc(NSREQ_BIND);
  802c2f:	b8 02 00 00 00       	mov    $0x2,%eax
  802c34:	e8 a7 fd ff ff       	call   8029e0 <nsipc>
}
  802c39:	83 c4 14             	add    $0x14,%esp
  802c3c:	5b                   	pop    %ebx
  802c3d:	5d                   	pop    %ebp
  802c3e:	c3                   	ret    

00802c3f <nsipc_accept>:
	return ipc_recv(NULL, NULL, NULL);
}

int
nsipc_accept(int s, struct sockaddr *addr, socklen_t *addrlen)
{
  802c3f:	55                   	push   %ebp
  802c40:	89 e5                	mov    %esp,%ebp
  802c42:	83 ec 18             	sub    $0x18,%esp
  802c45:	89 5d f8             	mov    %ebx,-0x8(%ebp)
  802c48:	89 75 fc             	mov    %esi,-0x4(%ebp)
	int r;

	nsipcbuf.accept.req_s = s;
  802c4b:	8b 45 08             	mov    0x8(%ebp),%eax
  802c4e:	a3 00 e0 b3 00       	mov    %eax,0xb3e000
	if ((r = nsipc(NSREQ_ACCEPT)) >= 0) {
  802c53:	b8 01 00 00 00       	mov    $0x1,%eax
  802c58:	e8 83 fd ff ff       	call   8029e0 <nsipc>
  802c5d:	89 c3                	mov    %eax,%ebx
  802c5f:	85 c0                	test   %eax,%eax
  802c61:	78 25                	js     802c88 <nsipc_accept+0x49>
		struct Nsret_accept *ret = &nsipcbuf.acceptRet;
		memmove(addr, &ret->ret_addr, ret->ret_addrlen);
  802c63:	be 10 e0 b3 00       	mov    $0xb3e010,%esi
  802c68:	8b 06                	mov    (%esi),%eax
  802c6a:	89 44 24 08          	mov    %eax,0x8(%esp)
  802c6e:	c7 44 24 04 00 e0 b3 	movl   $0xb3e000,0x4(%esp)
  802c75:	00 
  802c76:	8b 45 0c             	mov    0xc(%ebp),%eax
  802c79:	89 04 24             	mov    %eax,(%esp)
  802c7c:	e8 74 e6 ff ff       	call   8012f5 <memmove>
		*addrlen = ret->ret_addrlen;
  802c81:	8b 16                	mov    (%esi),%edx
  802c83:	8b 45 10             	mov    0x10(%ebp),%eax
  802c86:	89 10                	mov    %edx,(%eax)
	}
	return r;
}
  802c88:	89 d8                	mov    %ebx,%eax
  802c8a:	8b 5d f8             	mov    -0x8(%ebp),%ebx
  802c8d:	8b 75 fc             	mov    -0x4(%ebp),%esi
  802c90:	89 ec                	mov    %ebp,%esp
  802c92:	5d                   	pop    %ebp
  802c93:	c3                   	ret    
	...

00802ca0 <free>:
	return v;
}

void
free(void *v)
{
  802ca0:	55                   	push   %ebp
  802ca1:	89 e5                	mov    %esp,%ebp
  802ca3:	56                   	push   %esi
  802ca4:	53                   	push   %ebx
  802ca5:	83 ec 10             	sub    $0x10,%esp
  802ca8:	8b 5d 08             	mov    0x8(%ebp),%ebx
	uint8_t *c;
	uint32_t *ref;

	if (v == 0)
  802cab:	85 db                	test   %ebx,%ebx
  802cad:	0f 84 b9 00 00 00    	je     802d6c <free+0xcc>
		return;
	assert(mbegin <= (uint8_t*) v && (uint8_t*) v < mend);
  802cb3:	81 fb ff ff ff 07    	cmp    $0x7ffffff,%ebx
  802cb9:	76 08                	jbe    802cc3 <free+0x23>
  802cbb:	81 fb ff ff ff 0f    	cmp    $0xfffffff,%ebx
  802cc1:	76 24                	jbe    802ce7 <free+0x47>
  802cc3:	c7 44 24 0c fc 28 81 	movl   $0x8128fc,0xc(%esp)
  802cca:	00 
  802ccb:	c7 44 24 08 a1 28 81 	movl   $0x8128a1,0x8(%esp)
  802cd2:	00 
  802cd3:	c7 44 24 04 7a 00 00 	movl   $0x7a,0x4(%esp)
  802cda:	00 
  802cdb:	c7 04 24 2a 29 81 00 	movl   $0x81292a,(%esp)
  802ce2:	e8 2d dc ff ff       	call   800914 <_panic>

	c = ROUNDDOWN(v, PGSIZE);
  802ce7:	81 e3 00 f0 ff ff    	and    $0xfffff000,%ebx

	while (vpt[PGNUM(c)] & PTE_CONTINUED) {
  802ced:	be 00 00 40 ef       	mov    $0xef400000,%esi
  802cf2:	eb 4a                	jmp    802d3e <free+0x9e>
		sys_page_unmap(0, c);
  802cf4:	89 5c 24 04          	mov    %ebx,0x4(%esp)
  802cf8:	c7 04 24 00 00 00 00 	movl   $0x0,(%esp)
  802cff:	e8 f8 e9 ff ff       	call   8016fc <sys_page_unmap>
		c += PGSIZE;
  802d04:	81 c3 00 10 00 00    	add    $0x1000,%ebx
		assert(mbegin <= c && c < mend);
  802d0a:	81 fb ff ff ff 07    	cmp    $0x7ffffff,%ebx
  802d10:	76 08                	jbe    802d1a <free+0x7a>
  802d12:	81 fb ff ff ff 0f    	cmp    $0xfffffff,%ebx
  802d18:	76 24                	jbe    802d3e <free+0x9e>
  802d1a:	c7 44 24 0c 37 29 81 	movl   $0x812937,0xc(%esp)
  802d21:	00 
  802d22:	c7 44 24 08 a1 28 81 	movl   $0x8128a1,0x8(%esp)
  802d29:	00 
  802d2a:	c7 44 24 04 81 00 00 	movl   $0x81,0x4(%esp)
  802d31:	00 
  802d32:	c7 04 24 2a 29 81 00 	movl   $0x81292a,(%esp)
  802d39:	e8 d6 db ff ff       	call   800914 <_panic>
		return;
	assert(mbegin <= (uint8_t*) v && (uint8_t*) v < mend);

	c = ROUNDDOWN(v, PGSIZE);

	while (vpt[PGNUM(c)] & PTE_CONTINUED) {
  802d3e:	89 d8                	mov    %ebx,%eax
  802d40:	c1 e8 0c             	shr    $0xc,%eax
  802d43:	8b 04 86             	mov    (%esi,%eax,4),%eax
  802d46:	f6 c4 04             	test   $0x4,%ah
  802d49:	75 a9                	jne    802cf4 <free+0x54>

	/*
	 * c is just a piece of this page, so dec the ref count
	 * and maybe free the page.
	 */
	ref = (uint32_t*) (c + PGSIZE - 4);
  802d4b:	8d 93 fc 0f 00 00    	lea    0xffc(%ebx),%edx
	if (--(*ref) == 0)
  802d51:	8b 02                	mov    (%edx),%eax
  802d53:	83 e8 01             	sub    $0x1,%eax
  802d56:	89 02                	mov    %eax,(%edx)
  802d58:	85 c0                	test   %eax,%eax
  802d5a:	75 10                	jne    802d6c <free+0xcc>
		sys_page_unmap(0, c);
  802d5c:	89 5c 24 04          	mov    %ebx,0x4(%esp)
  802d60:	c7 04 24 00 00 00 00 	movl   $0x0,(%esp)
  802d67:	e8 90 e9 ff ff       	call   8016fc <sys_page_unmap>
}
  802d6c:	83 c4 10             	add    $0x10,%esp
  802d6f:	5b                   	pop    %ebx
  802d70:	5e                   	pop    %esi
  802d71:	5d                   	pop    %ebp
  802d72:	c3                   	ret    

00802d73 <malloc>:
	return 1;
}

void*
malloc(size_t n)
{
  802d73:	55                   	push   %ebp
  802d74:	89 e5                	mov    %esp,%ebp
  802d76:	57                   	push   %edi
  802d77:	56                   	push   %esi
  802d78:	53                   	push   %ebx
  802d79:	83 ec 3c             	sub    $0x3c,%esp
	int i, cont;
	int nwrap;
	uint32_t *ref;
	void *v;

	if (mptr == 0)
  802d7c:	83 3d 98 60 81 00 00 	cmpl   $0x0,0x816098
  802d83:	75 0a                	jne    802d8f <malloc+0x1c>
		mptr = mbegin;
  802d85:	c7 05 98 60 81 00 00 	movl   $0x8000000,0x816098
  802d8c:	00 00 08 

	n = ROUNDUP(n, 4);
  802d8f:	8b 45 08             	mov    0x8(%ebp),%eax
  802d92:	83 c0 03             	add    $0x3,%eax
  802d95:	83 e0 fc             	and    $0xfffffffc,%eax
  802d98:	89 45 d8             	mov    %eax,-0x28(%ebp)

	if (n >= MAXMALLOC)
  802d9b:	3d ff ff 0f 00       	cmp    $0xfffff,%eax
  802da0:	0f 87 97 01 00 00    	ja     802f3d <malloc+0x1ca>
		return 0;

	if ((uintptr_t) mptr % PGSIZE){
  802da6:	a1 98 60 81 00       	mov    0x816098,%eax
  802dab:	89 c2                	mov    %eax,%edx
  802dad:	a9 ff 0f 00 00       	test   $0xfff,%eax
  802db2:	74 4d                	je     802e01 <malloc+0x8e>
		 * we're in the middle of a partially
		 * allocated page - can we add this chunk?
		 * the +4 below is for the ref count.
		 */
		ref = (uint32_t*) (ROUNDUP(mptr, PGSIZE) - 4);
		if ((uintptr_t) mptr / PGSIZE == (uintptr_t) (mptr + n - 1 + 4) / PGSIZE) {
  802db4:	89 c3                	mov    %eax,%ebx
  802db6:	c1 eb 0c             	shr    $0xc,%ebx
  802db9:	8b 75 d8             	mov    -0x28(%ebp),%esi
  802dbc:	8d 4c 30 03          	lea    0x3(%eax,%esi,1),%ecx
  802dc0:	c1 e9 0c             	shr    $0xc,%ecx
  802dc3:	39 cb                	cmp    %ecx,%ebx
  802dc5:	75 1e                	jne    802de5 <malloc+0x72>
		/*
		 * we're in the middle of a partially
		 * allocated page - can we add this chunk?
		 * the +4 below is for the ref count.
		 */
		ref = (uint32_t*) (ROUNDUP(mptr, PGSIZE) - 4);
  802dc7:	81 c2 ff 0f 00 00    	add    $0xfff,%edx
  802dcd:	81 e2 00 f0 ff ff    	and    $0xfffff000,%edx
		if ((uintptr_t) mptr / PGSIZE == (uintptr_t) (mptr + n - 1 + 4) / PGSIZE) {
			(*ref)++;
  802dd3:	83 42 fc 01          	addl   $0x1,-0x4(%edx)
			v = mptr;
			mptr += n;
  802dd7:	8d 14 30             	lea    (%eax,%esi,1),%edx
  802dda:	89 15 98 60 81 00    	mov    %edx,0x816098
			return v;
  802de0:	e9 5d 01 00 00       	jmp    802f42 <malloc+0x1cf>
		}
		/*
		 * stop working on this page and move on.
		 */
		free(mptr);	/* drop reference to this page */
  802de5:	89 04 24             	mov    %eax,(%esp)
  802de8:	e8 b3 fe ff ff       	call   802ca0 <free>
		mptr = ROUNDDOWN(mptr + PGSIZE, PGSIZE);
  802ded:	a1 98 60 81 00       	mov    0x816098,%eax
  802df2:	05 00 10 00 00       	add    $0x1000,%eax
  802df7:	25 00 f0 ff ff       	and    $0xfffff000,%eax
  802dfc:	a3 98 60 81 00       	mov    %eax,0x816098
  802e01:	8b 3d 98 60 81 00    	mov    0x816098,%edi
  802e07:	c7 45 e0 00 00 00 00 	movl   $0x0,-0x20(%ebp)
			return 0;
	return 1;
}

void*
malloc(size_t n)
  802e0e:	8b 45 d8             	mov    -0x28(%ebp),%eax
  802e11:	83 c0 04             	add    $0x4,%eax
  802e14:	89 45 dc             	mov    %eax,-0x24(%ebp)
{
	uintptr_t va, end_va = (uintptr_t) v + n;

	for (va = (uintptr_t) v; va < end_va; va += PGSIZE)
		if (va >= (uintptr_t) mend
		    || ((vpd[PDX(va)] & PTE_P) && (vpt[PGNUM(va)] & PTE_P)))
  802e17:	bb 00 d0 7b ef       	mov    $0xef7bd000,%ebx
  802e1c:	be 00 00 40 ef       	mov    $0xef400000,%esi
			return 0;
	return 1;
}

void*
malloc(size_t n)
  802e21:	8b 45 dc             	mov    -0x24(%ebp),%eax
  802e24:	89 45 d4             	mov    %eax,-0x2c(%ebp)
  802e27:	8d 0c 07             	lea    (%edi,%eax,1),%ecx
  802e2a:	89 7d e4             	mov    %edi,-0x1c(%ebp)
static int
isfree(void *v, size_t n)
{
	uintptr_t va, end_va = (uintptr_t) v + n;

	for (va = (uintptr_t) v; va < end_va; va += PGSIZE)
  802e2d:	39 cf                	cmp    %ecx,%edi
  802e2f:	0f 83 d7 00 00 00    	jae    802f0c <malloc+0x199>
		if (va >= (uintptr_t) mend
  802e35:	89 f8                	mov    %edi,%eax
  802e37:	81 ff ff ff ff 0f    	cmp    $0xfffffff,%edi
  802e3d:	76 09                	jbe    802e48 <malloc+0xd5>
  802e3f:	eb 38                	jmp    802e79 <malloc+0x106>
  802e41:	3d ff ff ff 0f       	cmp    $0xfffffff,%eax
  802e46:	77 31                	ja     802e79 <malloc+0x106>
		    || ((vpd[PDX(va)] & PTE_P) && (vpt[PGNUM(va)] & PTE_P)))
  802e48:	89 c2                	mov    %eax,%edx
  802e4a:	c1 ea 16             	shr    $0x16,%edx
  802e4d:	8b 14 93             	mov    (%ebx,%edx,4),%edx
isfree(void *v, size_t n)
{
	uintptr_t va, end_va = (uintptr_t) v + n;

	for (va = (uintptr_t) v; va < end_va; va += PGSIZE)
		if (va >= (uintptr_t) mend
  802e50:	f6 c2 01             	test   $0x1,%dl
  802e53:	74 0d                	je     802e62 <malloc+0xef>
		    || ((vpd[PDX(va)] & PTE_P) && (vpt[PGNUM(va)] & PTE_P)))
  802e55:	89 c2                	mov    %eax,%edx
  802e57:	c1 ea 0c             	shr    $0xc,%edx
  802e5a:	8b 14 96             	mov    (%esi,%edx,4),%edx
isfree(void *v, size_t n)
{
	uintptr_t va, end_va = (uintptr_t) v + n;

	for (va = (uintptr_t) v; va < end_va; va += PGSIZE)
		if (va >= (uintptr_t) mend
  802e5d:	f6 c2 01             	test   $0x1,%dl
  802e60:	75 17                	jne    802e79 <malloc+0x106>
static int
isfree(void *v, size_t n)
{
	uintptr_t va, end_va = (uintptr_t) v + n;

	for (va = (uintptr_t) v; va < end_va; va += PGSIZE)
  802e62:	05 00 10 00 00       	add    $0x1000,%eax
  802e67:	39 c8                	cmp    %ecx,%eax
  802e69:	72 d6                	jb     802e41 <malloc+0xce>
  802e6b:	8b 75 e4             	mov    -0x1c(%ebp),%esi
  802e6e:	89 35 98 60 81 00    	mov    %esi,0x816098
  802e74:	e9 9b 00 00 00       	jmp    802f14 <malloc+0x1a1>
  802e79:	81 c7 00 10 00 00    	add    $0x1000,%edi
  802e7f:	81 c1 00 10 00 00    	add    $0x1000,%ecx
	nwrap = 0;
	while (1) {
		if (isfree(mptr, n + 4))
			break;
		mptr += PGSIZE;
		if (mptr == mend) {
  802e85:	81 ff 00 00 00 10    	cmp    $0x10000000,%edi
  802e8b:	75 9d                	jne    802e2a <malloc+0xb7>
			mptr = mbegin;
			if (++nwrap == 2)
  802e8d:	83 45 e0 01          	addl   $0x1,-0x20(%ebp)
  802e91:	83 7d e0 02          	cmpl   $0x2,-0x20(%ebp)
  802e95:	74 07                	je     802e9e <malloc+0x12b>
  802e97:	bf 00 00 00 08       	mov    $0x8000000,%edi
  802e9c:	eb 83                	jmp    802e21 <malloc+0xae>
  802e9e:	c7 05 98 60 81 00 00 	movl   $0x8000000,0x816098
  802ea5:	00 00 08 
  802ea8:	b8 00 00 00 00       	mov    $0x0,%eax
  802ead:	e9 90 00 00 00       	jmp    802f42 <malloc+0x1cf>

	/*
	 * allocate at mptr - the +4 makes sure we allocate a ref count.
	 */
	for (i = 0; i < n + 4; i += PGSIZE){
		cont = (i + PGSIZE < n + 4) ? PTE_CONTINUED : 0;
  802eb2:	8d b3 00 10 00 00    	lea    0x1000(%ebx),%esi
  802eb8:	39 fe                	cmp    %edi,%esi
  802eba:	19 c0                	sbb    %eax,%eax
  802ebc:	25 00 04 00 00       	and    $0x400,%eax
		if (sys_page_alloc(0, mptr + i, PTE_P|PTE_U|PTE_W|cont) < 0){
  802ec1:	83 c8 07             	or     $0x7,%eax
  802ec4:	89 44 24 08          	mov    %eax,0x8(%esp)
  802ec8:	03 15 98 60 81 00    	add    0x816098,%edx
  802ece:	89 54 24 04          	mov    %edx,0x4(%esp)
  802ed2:	c7 04 24 00 00 00 00 	movl   $0x0,(%esp)
  802ed9:	e8 8f e8 ff ff       	call   80176d <sys_page_alloc>
  802ede:	85 c0                	test   %eax,%eax
  802ee0:	78 04                	js     802ee6 <malloc+0x173>
  802ee2:	89 f3                	mov    %esi,%ebx
  802ee4:	eb 36                	jmp    802f1c <malloc+0x1a9>
			for (; i >= 0; i -= PGSIZE)
  802ee6:	85 db                	test   %ebx,%ebx
  802ee8:	78 53                	js     802f3d <malloc+0x1ca>
				sys_page_unmap(0, mptr + i);
  802eea:	89 d8                	mov    %ebx,%eax
  802eec:	03 05 98 60 81 00    	add    0x816098,%eax
  802ef2:	89 44 24 04          	mov    %eax,0x4(%esp)
  802ef6:	c7 04 24 00 00 00 00 	movl   $0x0,(%esp)
  802efd:	e8 fa e7 ff ff       	call   8016fc <sys_page_unmap>
	 * allocate at mptr - the +4 makes sure we allocate a ref count.
	 */
	for (i = 0; i < n + 4; i += PGSIZE){
		cont = (i + PGSIZE < n + 4) ? PTE_CONTINUED : 0;
		if (sys_page_alloc(0, mptr + i, PTE_P|PTE_U|PTE_W|cont) < 0){
			for (; i >= 0; i -= PGSIZE)
  802f02:	81 eb 00 10 00 00    	sub    $0x1000,%ebx
  802f08:	79 e0                	jns    802eea <malloc+0x177>
  802f0a:	eb 31                	jmp    802f3d <malloc+0x1ca>
  802f0c:	8b 45 e4             	mov    -0x1c(%ebp),%eax
  802f0f:	a3 98 60 81 00       	mov    %eax,0x816098
  802f14:	bb 00 00 00 00       	mov    $0x0,%ebx
  802f19:	8b 7d d4             	mov    -0x2c(%ebp),%edi
  802f1c:	89 da                	mov    %ebx,%edx
	}

	/*
	 * allocate at mptr - the +4 makes sure we allocate a ref count.
	 */
	for (i = 0; i < n + 4; i += PGSIZE){
  802f1e:	39 fb                	cmp    %edi,%ebx
  802f20:	72 90                	jb     802eb2 <malloc+0x13f>
				sys_page_unmap(0, mptr + i);
			return 0;	/* out of physical memory */
		}
	}

	ref = (uint32_t*) (mptr + i - 4);
  802f22:	a1 98 60 81 00       	mov    0x816098,%eax
	*ref = 2;	/* reference for mptr, reference for returned block */
  802f27:	c7 44 18 fc 02 00 00 	movl   $0x2,-0x4(%eax,%ebx,1)
  802f2e:	00 
	v = mptr;
	mptr += n;
  802f2f:	8b 55 d8             	mov    -0x28(%ebp),%edx
  802f32:	8d 14 10             	lea    (%eax,%edx,1),%edx
  802f35:	89 15 98 60 81 00    	mov    %edx,0x816098
	return v;
  802f3b:	eb 05                	jmp    802f42 <malloc+0x1cf>
  802f3d:	b8 00 00 00 00       	mov    $0x0,%eax
}
  802f42:	83 c4 3c             	add    $0x3c,%esp
  802f45:	5b                   	pop    %ebx
  802f46:	5e                   	pop    %esi
  802f47:	5f                   	pop    %edi
